///////////////////////////////////////////////////////////////////////////////
//
// IAR ANSI C/C++ Compiler V9.40.1.364/W64 for ARM        23/Nov/2023  21:46:16
// Copyright 1999-2023 IAR Systems AB.
//
//    Cpu mode     =  thumb
//    Endian       =  little
//    Source file  =
//        C:\Workspace\W25Q64JV_STM32H562_FlashLoader\Source\Library\stm32h5xx_hal_rcc_ex.c
//    Command line =
//        -f
//        C:\Workspace\W25Q64JV_STM32H562_FlashLoader\Project\W25Q64JV_STM32H562\Obj\Library_12270351780628986503.dir\stm32h5xx_hal_rcc_ex.o.rsp
//        (C:\Workspace\W25Q64JV_STM32H562_FlashLoader\Source\Library\stm32h5xx_hal_rcc_ex.c
//        -D STM32H562xx -lCN
//        C:\Workspace\W25Q64JV_STM32H562_FlashLoader\Project\W25Q64JV_STM32H562\List\Library_12270351780628986503.dir
//        -lA
//        C:\Workspace\W25Q64JV_STM32H562_FlashLoader\Project\W25Q64JV_STM32H562\List\Library_12270351780628986503.dir
//        -o
//        C:\Workspace\W25Q64JV_STM32H562_FlashLoader\Project\W25Q64JV_STM32H562\Obj\Library_12270351780628986503.dir
//        --no_cse --no_unroll --no_inline --no_code_motion --no_tbaa
//        --no_clustering --no_scheduling --debug --endian=little
//        --cpu=Cortex-M33.no_dsp.no_se -e --fpu=VFPv5_sp --dlib_config
//        "C:\Program Files\IAR Systems\Embedded Workbench
//        9.2\arm\inc\c\DLib_Config_Normal.h" -I
//        C:\Workspace\W25Q64JV_STM32H562_FlashLoader\Project\..\Includes\CMSIS\
//        -I
//        C:\Workspace\W25Q64JV_STM32H562_FlashLoader\Project\..\Includes\Library\
//        -I
//        C:\Workspace\W25Q64JV_STM32H562_FlashLoader\Project\..\Includes\Loader\
//        -Ol) --dependencies=n
//        C:\Workspace\W25Q64JV_STM32H562_FlashLoader\Project\W25Q64JV_STM32H562\Obj\Library_12270351780628986503.dir\stm32h5xx_hal_rcc_ex.o.iar_deps
//    Locale       =  C
//    List file    =
//        C:\Workspace\W25Q64JV_STM32H562_FlashLoader\Project\W25Q64JV_STM32H562\List\Library_12270351780628986503.dir\stm32h5xx_hal_rcc_ex.s
//
///////////////////////////////////////////////////////////////////////////////

        RTMODEL "__CPP_Runtime", "1"
        RTMODEL "__SystemLibrary", "DLib"
        RTMODEL "__dlib_version", "6"
        AAPCS BASE,INTERWORK,VFP
        PRESERVE8
        REQUIRE8

        #define SHT_PROGBITS 0x1

        EXTERN GPIO_Debug
        EXTERN HAL_GetTick
        EXTERN HAL_PWR_DisableBkUpAccess
        EXTERN HAL_PWR_EnableBkUpAccess
        EXTERN HAL_RCC_GetHCLKFreq
        EXTERN HAL_RCC_GetPCLK1Freq
        EXTERN HAL_RCC_GetPCLK2Freq
        EXTERN HAL_RCC_GetPCLK3Freq
        EXTERN HAL_RCC_GetSysClockFreq

        PUBLIC HAL_RCCEx_CRSConfig
        PUBLIC HAL_RCCEx_CRSGetSynchronizationInfo
        PUBLIC HAL_RCCEx_CRSSoftwareSynchronizationGenerate
        PUBLIC HAL_RCCEx_CRSWaitSynchronization
        PUBLIC HAL_RCCEx_CRS_ErrorCallback
        PUBLIC HAL_RCCEx_CRS_ExpectedSyncCallback
        PUBLIC HAL_RCCEx_CRS_IRQHandler
        PUBLIC HAL_RCCEx_CRS_SyncOkCallback
        PUBLIC HAL_RCCEx_CRS_SyncWarnCallback
        PUBLIC HAL_RCCEx_DisableLSCO
        PUBLIC HAL_RCCEx_DisableLSECSS
        PUBLIC HAL_RCCEx_DisablePLL2
        PUBLIC HAL_RCCEx_DisablePLL3
        PUBLIC HAL_RCCEx_EnableLSCO
        PUBLIC HAL_RCCEx_EnableLSECSS
        PUBLIC HAL_RCCEx_EnablePLL2
        PUBLIC HAL_RCCEx_EnablePLL3
        PUBLIC HAL_RCCEx_GetPLL1ClockFreq
        PUBLIC HAL_RCCEx_GetPLL2ClockFreq
        PUBLIC HAL_RCCEx_GetPLL3ClockFreq
        PUBLIC HAL_RCCEx_GetPeriphCLKConfig
        PUBLIC HAL_RCCEx_GetPeriphCLKFreq
        PUBLIC HAL_RCCEx_KerWakeUpStopCLKConfig
        PUBLIC HAL_RCCEx_LSECSS_Callback
        PUBLIC HAL_RCCEx_LSECSS_IRQHandler
        PUBLIC HAL_RCCEx_PeriphCLKConfig
        PUBLIC HAL_RCCEx_WakeUpStopCLKConfig
        PUBLIC __iar_llswitch
        
          CFI Names cfiNames0
          CFI StackFrame CFA R13 DATA
          CFI Resource R0:32, R1:32, R2:32, R3:32, R4:32, R5:32, R6:32, R7:32
          CFI Resource R8:32, R9:32, R10:32, R11:32, R12:32, R13:32, R14:32
          CFI Resource D0:64, D1:64, D2:64, D3:64, D4:64, D5:64, D6:64, D7:64
          CFI Resource D8:64, D9:64, D10:64, D11:64, D12:64, D13:64, D14:64
          CFI Resource D15:64
          CFI EndNames cfiNames0
        
          CFI Common cfiCommon0 Using cfiNames0
          CFI CodeAlign 2
          CFI DataAlign 4
          CFI ReturnAddress R14 CODE
          CFI CFA R13+0
          CFI R0 Undefined
          CFI R1 Undefined
          CFI R2 Undefined
          CFI R3 Undefined
          CFI R4 SameValue
          CFI R5 SameValue
          CFI R6 SameValue
          CFI R7 SameValue
          CFI R8 SameValue
          CFI R9 SameValue
          CFI R10 SameValue
          CFI R11 SameValue
          CFI R12 Undefined
          CFI R14 SameValue
          CFI D0 Undefined
          CFI D1 Undefined
          CFI D2 Undefined
          CFI D3 Undefined
          CFI D4 Undefined
          CFI D5 Undefined
          CFI D6 Undefined
          CFI D7 Undefined
          CFI D8 SameValue
          CFI D9 SameValue
          CFI D10 SameValue
          CFI D11 SameValue
          CFI D12 SameValue
          CFI D13 SameValue
          CFI D14 SameValue
          CFI D15 SameValue
          CFI EndCommon cfiCommon0
        
        
          CFI Names cfiNames1
          CFI StackFrame CFA R13 DATA
          CFI Resource R0:32, R1:32, R2:32, R3:32, R4:32, R5:32, R6:32, R7:32
          CFI Resource R8:32, R9:32, R10:32, R11:32, R12:32, R13:32, R14:32
          CFI EndNames cfiNames1
        
          CFI Common cfiCommon1 Using cfiNames1
          CFI CodeAlign 2
          CFI DataAlign 4
          CFI ReturnAddress R14 CODE
          CFI CFA R13+0
          CFI R0 Undefined
          CFI R1 Undefined
          CFI R2 Undefined
          CFI R3 Undefined
          CFI R4 SameValue
          CFI R5 SameValue
          CFI R6 SameValue
          CFI R7 SameValue
          CFI R8 SameValue
          CFI R9 SameValue
          CFI R10 SameValue
          CFI R11 SameValue
          CFI R12 Undefined
          CFI R14 SameValue
          CFI EndCommon cfiCommon1
        
// C:\Workspace\W25Q64JV_STM32H562_FlashLoader\Source\Library\stm32h5xx_hal_rcc_ex.c
//    1 /**
//    2   ******************************************************************************
//    3   * @file    stm32h5xx_hal_rcc_ex.c
//    4   * @author  MCD Application Team
//    5   * @brief   Extended RCC HAL module driver.
//    6   *          This file provides firmware functions to manage the following
//    7   *          functionalities RCC extended peripheral:
//    8   *           + Extended Peripheral Control functions
//    9   *           + Extended Clock management functions
//   10   *           + Extended Clock Recovery System Control functions
//   11   *
//   12   ******************************************************************************
//   13   * @attention
//   14   *
//   15   * Copyright (c) 2023 STMicroelectronics.
//   16   * All rights reserved.
//   17   *
//   18   * This software is licensed under terms that can be found in the LICENSE file
//   19   * in the root directory of this software component.
//   20   * If no LICENSE file comes with this software, it is provided AS-IS.
//   21   *
//   22   ******************************************************************************
//   23   */
//   24 
//   25 /* Includes ------------------------------------------------------------------*/
//   26 #include "stm32h5xx_hal.h"
//   27 
//   28 /** @addtogroup STM32H5xx_HAL_Driver
//   29   * @{
//   30   */
//   31 
//   32 /** @defgroup RCCEx RCCEx
//   33   * @brief RCC Extended HAL module driver
//   34   * @{
//   35   */
//   36 
//   37 #ifdef HAL_RCC_MODULE_ENABLED
//   38 
//   39 /* Private typedef -----------------------------------------------------------*/
//   40 /* Private defines -----------------------------------------------------------*/
//   41 /** @defgroup RCCEx_Private_Constants RCCEx Private Constants
//   42   * @{
//   43   */
//   44 #define PLL1_TIMEOUT_VALUE     ((uint32_t)2U)          /* 2 ms (minimum Tick + 1) */
//   45 #define PLL2_TIMEOUT_VALUE     ((uint32_t)2U)          /* 2 ms (minimum Tick + 1) */
//   46 #if defined(RCC_CR_PLL3ON)
//   47 #define PLL3_TIMEOUT_VALUE     ((uint32_t)2U)          /* 2 ms (minimum Tick + 1) */
//   48 #endif /* RCC_CR_PLL3ON */
//   49 
//   50 /**
//   51   * @}
//   52   */
//   53 
//   54 /* Private macros ------------------------------------------------------------*/
//   55 /* Private variables ---------------------------------------------------------*/
//   56 /* Private function prototypes -----------------------------------------------*/
//   57 /** @defgroup RCCEx_Private_Functions RCCEx Private Functions
//   58   * @{
//   59   */
//   60 static HAL_StatusTypeDef RCCEx_PLLSource_Enable(uint32_t PllSource);
//   61 static HAL_StatusTypeDef RCCEx_PLL2_Config(const RCC_PLL2InitTypeDef *Pll2);
//   62 #if defined(RCC_CR_PLL3ON)
//   63 static HAL_StatusTypeDef RCCEx_PLL3_Config(const RCC_PLL3InitTypeDef *Pll3);
//   64 #endif /* RCC_CR_PLL3ON */
//   65 /**
//   66   * @}
//   67   */
//   68 
//   69 /* Exported functions --------------------------------------------------------*/
//   70 
//   71 /** @defgroup RCCEx_Exported_Functions RCCEx Exported Functions
//   72   * @{
//   73   */
//   74 
//   75 /** @defgroup RCCEx_Exported_Functions_Group1 Extended Peripheral Control functions
//   76   *  @brief  Extended Peripheral Control functions
//   77   *
//   78 @verbatim
//   79  ===============================================================================
//   80                 ##### Extended Peripheral Control functions  #####
//   81  ===============================================================================
//   82     [..]
//   83     This subsection provides a set of functions allowing to control the RCC Clocks
//   84     frequencies.
//   85     [..]
//   86     (@) Important note: Care must be taken when HAL_RCCEx_PeriphCLKConfig() is used to
//   87         select the RTC clock source; in this case the Backup domain will be reset in
//   88         order to modify the RTC Clock source, as consequence RTC registers (including
//   89         the backup registers) are set to their reset values.
//   90 
//   91 @endverbatim
//   92   * @{
//   93   */
//   94 /**
//   95   * @brief  Initialize the RCC extended peripherals clocks according to the specified
//   96   *         parameters in the RCC_PeriphCLKInitTypeDef.
//   97   * @param  pPeriphClkInit  pointer to an RCC_PeriphCLKInitTypeDef structure that
//   98   *         contains a field PeriphClockSelection which can be a combination of the following values:
//   99   *            @arg @ref RCC_PERIPHCLK_USART1  USART1 peripheral clock
//  100   *            @arg @ref RCC_PERIPHCLK_USART2  USART2 peripheral clock
//  101   *            @arg @ref RCC_PERIPHCLK_USART3  USART3 peripheral clock
//  102   *            @arg @ref RCC_PERIPHCLK_UART4   UART4 peripheral clock (*)
//  103   *            @arg @ref RCC_PERIPHCLK_UART5   UART5 peripheral clock (*)
//  104   *            @arg @ref RCC_PERIPHCLK_USART6  USART6 peripheral clock (*)
//  105   *            @arg @ref RCC_PERIPHCLK_UART7   UART7 peripheral clock (*)
//  106   *            @arg @ref RCC_PERIPHCLK_UART8   UART8 peripheral clock (*)
//  107   *            @arg @ref RCC_PERIPHCLK_UART9   UART9 peripheral clock (*)
//  108   *            @arg @ref RCC_PERIPHCLK_USART10 USART10 peripheral clock (*)
//  109   *            @arg @ref RCC_PERIPHCLK_USART11 USART11 peripheral clock (*)
//  110   *            @arg @ref RCC_PERIPHCLK_UART12  UART12 peripheral clock (*)
//  111   *            @arg @ref RCC_PERIPHCLK_LPUART1 LPUART1 peripheral clock
//  112   *            @arg @ref RCC_PERIPHCLK_I2C1    I2C1 peripheral clock
//  113   *            @arg @ref RCC_PERIPHCLK_I2C2    I2C2 peripheral clock
//  114   *            @arg @ref RCC_PERIPHCLK_I2C3    I2C3 peripheral clock (*)
//  115   *            @arg @ref RCC_PERIPHCLK_I2C4    I2C4 peripheral clock (*)
//  116   *            @arg @ref RCC_PERIPHCLK_I3C1    I3C1 peripheral clock
//  117   *            @arg @ref RCC_PERIPHCLK_I3C2    I3C2 peripheral clock (***)
//  118   *            @arg @ref RCC_PERIPHCLK_LPTIM1  LPTIM1 peripheral clock
//  119   *            @arg @ref RCC_PERIPHCLK_LPTIM2  LPTIM2 peripheral clock
//  120   *            @arg @ref RCC_PERIPHCLK_SAI1    SAI1 peripheral clock (*)
//  121   *            @arg @ref RCC_PERIPHCLK_SAI2    SAI2 peripheral clock (*)
//  122   *            @arg @ref RCC_PERIPHCLK_ADCDAC  ADCDAC peripheral clock
//  123   *            @arg @ref RCC_PERIPHCLK_ADC     ADC peripheral clock
//  124   *            @arg @ref RCC_PERIPHCLK_SDMMC1  SDMMC1 peripheral clock (*)
//  125   *            @arg @ref RCC_PERIPHCLK_SDMMC2  SDMMC2 peripheral clock (**)
//  126   *            @arg @ref RCC_PERIPHCLK_CKPER   CKPER peripheral clock
//  127   *            @arg @ref RCC_PERIPHCLK_RTC     RTC peripheral clock
//  128   *            @arg @ref RCC_PERIPHCLK_RNG     RNG peripheral clock
//  129   *            @arg @ref RCC_PERIPHCLK_SPI1    SPI1 peripheral clock
//  130   *            @arg @ref RCC_PERIPHCLK_SPI2    SPI2 peripheral clock
//  131   *            @arg @ref RCC_PERIPHCLK_SPI3    SPI3 peripheral clock
//  132   *            @arg @ref RCC_PERIPHCLK_SPI4    SPI4 peripheral clock (*)
//  133   *            @arg @ref RCC_PERIPHCLK_SPI5    SPI5 peripheral clock (*)
//  134   *            @arg @ref RCC_PERIPHCLK_SPI6    SPI6 peripheral clock (*)
//  135   *            @arg @ref RCC_PERIPHCLK_OSPI    OCTOSPI peripheral clock (*)
//  136   *            @arg @ref RCC_PERIPHCLK_FDCAN   FDCAN peripheral clock
//  137   *            @arg @ref RCC_PERIPHCLK_CEC     CEC peripheral clock (*)
//  138   *            @arg @ref RCC_PERIPHCLK_USB     USB peripheral clock
//  139   *            @arg @ref RCC_PERIPHCLK_LPTIM3  LPTIM3 peripheral clock (*)
//  140   *            @arg @ref RCC_PERIPHCLK_LPTIM4  LPTIM4 peripheral clock (*)
//  141   *            @arg @ref RCC_PERIPHCLK_LPTIM5  LPTIM5 peripheral clock (*)
//  142   *            @arg @ref RCC_PERIPHCLK_LPTIM6  LPTIM6 peripheral clock (*)
//  143   *            @arg @ref RCC_PERIPHCLK_DAC_LP  DAC peripheral low-power clock
//  144   *            @arg @ref RCC_PERIPHCLK_TIM     TIM peripheral clock
//  145   *
//  146   * @note   Care must be taken when HAL_RCCEx_PeriphCLKConfig() is used to select
//  147   *         the RTC clock source: in this case the access to Backup domain is enabled.
//  148   *
//  149   * @retval HAL status
//  150   *
//  151   *  (*)   : For stm32h56xxx and stm32h57xxx family lines only.
//  152   *  (**)  : For stm32h563xx and stm32h57xxx family lines only.
//  153   *  (***) : For stm32h503xx family line only.
//  154   */

        SECTION `.text`:CODE:NOROOT(2)
          CFI Block cfiBlock0 Using cfiCommon0
          CFI Function HAL_RCCEx_PeriphCLKConfig
        THUMB
//  155 HAL_StatusTypeDef HAL_RCCEx_PeriphCLKConfig(const RCC_PeriphCLKInitTypeDef  *pPeriphClkInit)
//  156 {
HAL_RCCEx_PeriphCLKConfig:
        PUSH     {R4-R8,LR}     
          CFI R14 Frame(CFA, -4)
          CFI R8 Frame(CFA, -8)
          CFI R7 Frame(CFA, -12)
          CFI R6 Frame(CFA, -16)
          CFI R5 Frame(CFA, -20)
          CFI R4 Frame(CFA, -24)
          CFI CFA R13+24
        MOVS     R4,R0          
//  157   uint32_t tmpregister;
//  158   uint32_t tickstart;
//  159   HAL_StatusTypeDef ret = HAL_OK;      /* Intermediate status */
        MOVS     R5,#+0         
//  160   HAL_StatusTypeDef status = HAL_OK;   /* Final status */
        MOVS     R6,#+0         
//  161 
//  162   /* Check the parameters */
//  163   assert_param(IS_RCC_PERIPHCLOCK(pPeriphClkInit->PeriphClockSelection));
//  164 
//  165   /*------------------------------------ CKPER configuration --------------------------------------*/
//  166   if (((pPeriphClkInit->PeriphClockSelection) & RCC_PERIPHCLK_CKPER) == RCC_PERIPHCLK_CKPER)
        LDRD     R0,R1,[R4, #+0]
        LSLS     R0,R0,#+7      
        BPL.N    ??HAL_RCCEx_PeriphCLKConfig_3
//  167   {
//  168     /* Check the parameters */
//  169     assert_param(IS_RCC_CLKPSOURCE(pPeriphClkInit->CkperClockSelection));
//  170 
//  171     /* Configure the CKPER clock source */
//  172     __HAL_RCC_CLKP_CONFIG(pPeriphClkInit->CkperClockSelection);
        LDR.W    R1,??HAL_RCCEx_PeriphCLKConfig_0
        LDR      R2,[R1, #+0]   
        BIC      R2,R2,#0xC0000000
        LDR      R0,[R4, #+88]  
        ORRS     R2,R0,R2       
        STR      R2,[R1, #+0]   
//  173   }
//  174 
//  175   /*-------------------------- USART1 clock source configuration -------------------*/
//  176   if (((pPeriphClkInit->PeriphClockSelection) & RCC_PERIPHCLK_USART1) == RCC_PERIPHCLK_USART1)
??HAL_RCCEx_PeriphCLKConfig_3:
        LDRB     R0,[R4, #+0]   
        LSLS     R0,R0,#+31     
        BPL.N    ??HAL_RCCEx_PeriphCLKConfig_4
//  177   {
//  178     /* Check the parameters */
//  179     assert_param(IS_RCC_USART1CLKSOURCE(pPeriphClkInit->Usart1ClockSelection));
//  180 
//  181     switch (pPeriphClkInit->Usart1ClockSelection)
        LDR      R0,[R4, #+92]  
        CMP      R0,#+0         
        BEQ.N    ??HAL_RCCEx_PeriphCLKConfig_5
        CMP      R0,#+2         
        BEQ.N    ??HAL_RCCEx_PeriphCLKConfig_6
        BCC.N    ??HAL_RCCEx_PeriphCLKConfig_7
        CMP      R0,#+4         
        BEQ.N    ??HAL_RCCEx_PeriphCLKConfig_8
        BCC.N    ??HAL_RCCEx_PeriphCLKConfig_9
        CMP      R0,#+5         
        BEQ.N    ??HAL_RCCEx_PeriphCLKConfig_10
        B.N      ??HAL_RCCEx_PeriphCLKConfig_11
//  182     {
//  183       case RCC_USART1CLKSOURCE_PCLK2:      /* PCLK2 is used as clock source for USART1*/
//  184 
//  185         /* USART1 clock source config set later after clock selection check */
//  186         break;
??HAL_RCCEx_PeriphCLKConfig_5:
        B.N      ??HAL_RCCEx_PeriphCLKConfig_12
//  187 
//  188       case RCC_USART1CLKSOURCE_PLL2Q:  /* PLL2 is used as clock source for USART1*/
//  189         /* PLL2 input clock, parameters M, N & Q configuration and clock output (PLL2ClockOut) */
//  190         ret = RCCEx_PLL2_Config(&(pPeriphClkInit->PLL2));
??HAL_RCCEx_PeriphCLKConfig_7:
        ADDS     R0,R4,#+8      
          CFI FunCall RCCEx_PLL2_Config
        BL       RCCEx_PLL2_Config
        MOVS     R5,R0          
//  191         /* USART1 clock source config set later after clock selection check */
//  192         break;
        B.N      ??HAL_RCCEx_PeriphCLKConfig_12
//  193 #if defined(RCC_USART1CLKSOURCE_PLL3Q)
//  194       case RCC_USART1CLKSOURCE_PLL3Q:  /* PLL3 is used as clock source for USART1*/
//  195         /* PLL3  input clock, parameters M, N & Q configuration clock output (PLL3ClockOut) */
//  196         ret = RCCEx_PLL3_Config(&(pPeriphClkInit->PLL3));
??HAL_RCCEx_PeriphCLKConfig_6:
        ADDS     R0,R4,#+48     
          CFI FunCall RCCEx_PLL3_Config
        BL       RCCEx_PLL3_Config
        MOVS     R5,R0          
//  197         /* USART1 clock source config set later after clock selection check */
//  198         break;
        B.N      ??HAL_RCCEx_PeriphCLKConfig_12
//  199 #endif /* RCC_CR_PLL3ON */
//  200 
//  201       case RCC_USART1CLKSOURCE_HSI:      /* HSI clock is used as source of USART1 clock*/
//  202         /* USART1 clock source config set later after clock selection check */
//  203         break;
??HAL_RCCEx_PeriphCLKConfig_9:
        B.N      ??HAL_RCCEx_PeriphCLKConfig_12
//  204 
//  205       case RCC_USART1CLKSOURCE_CSI:      /* CSI clock is used as source of USART1 clock*/
//  206         /* USART1 clock source config set later after clock selection check */
//  207         break;
??HAL_RCCEx_PeriphCLKConfig_8:
        B.N      ??HAL_RCCEx_PeriphCLKConfig_12
//  208 
//  209       case RCC_USART1CLKSOURCE_LSE:      /* LSE clock is used as source of USART1 clock*/
//  210         /* USART1 clock source config set later after clock selection check */
//  211         break;
??HAL_RCCEx_PeriphCLKConfig_10:
        B.N      ??HAL_RCCEx_PeriphCLKConfig_12
//  212 
//  213       default:
//  214         ret = HAL_ERROR;
??HAL_RCCEx_PeriphCLKConfig_11:
        MOVS     R5,#+1         
//  215         break;
//  216     }
//  217 
//  218     if (ret == HAL_OK)
??HAL_RCCEx_PeriphCLKConfig_12:
        MOVS     R0,R5          
        UXTB     R0,R0          
        CMP      R0,#+0         
        BNE.N    ??HAL_RCCEx_PeriphCLKConfig_13
//  219     {
//  220       /* Set the source of USART1 clock*/
//  221       __HAL_RCC_USART1_CONFIG(pPeriphClkInit->Usart1ClockSelection);
        LDR.W    R1,??HAL_RCCEx_PeriphCLKConfig_0+0x4
        LDR      R2,[R1, #+0]   
        LSRS     R2,R2,#+3      
        LSLS     R2,R2,#+3      
        LDR      R0,[R4, #+92]  
        ORRS     R2,R0,R2       
        STR      R2,[R1, #+0]   
        B.N      ??HAL_RCCEx_PeriphCLKConfig_4
//  222     }
//  223     else
//  224     {
//  225       /* set overall return value */
//  226       status = ret;
??HAL_RCCEx_PeriphCLKConfig_13:
        MOVS     R6,R5          
//  227     }    
//  228   }    
//  229   /*-------------------------- USART2 clock source configuration -------------------*/
//  230   if (((pPeriphClkInit->PeriphClockSelection) & RCC_PERIPHCLK_USART2) == RCC_PERIPHCLK_USART2)
??HAL_RCCEx_PeriphCLKConfig_4:
        LDRB     R0,[R4, #+0]   
        LSLS     R0,R0,#+30     
        BPL.N    ??HAL_RCCEx_PeriphCLKConfig_14
//  231   {
//  232     /* Check the parameters */
//  233     assert_param(IS_RCC_USART2CLKSOURCE(pPeriphClkInit->Usart2ClockSelection));
//  234 
//  235     switch (pPeriphClkInit->Usart2ClockSelection)
        LDR      R0,[R4, #+96]  
        CMP      R0,#+0         
        BEQ.N    ??HAL_RCCEx_PeriphCLKConfig_15
        CMP      R0,#+8         
        BEQ.N    ??HAL_RCCEx_PeriphCLKConfig_16
        CMP      R0,#+16        
        BEQ.N    ??HAL_RCCEx_PeriphCLKConfig_17
        CMP      R0,#+24        
        BEQ.N    ??HAL_RCCEx_PeriphCLKConfig_18
        CMP      R0,#+32        
        BEQ.N    ??HAL_RCCEx_PeriphCLKConfig_19
        CMP      R0,#+40        
        BEQ.N    ??HAL_RCCEx_PeriphCLKConfig_20
        B.N      ??HAL_RCCEx_PeriphCLKConfig_21
//  236     {
//  237       case RCC_USART2CLKSOURCE_PCLK1:      /* PCLK1 is used as clock source for USART2*/
//  238 
//  239         /* USART2 clock source config set later after clock selection check */
//  240         break;
??HAL_RCCEx_PeriphCLKConfig_15:
        B.N      ??HAL_RCCEx_PeriphCLKConfig_22
//  241 
//  242       case RCC_USART2CLKSOURCE_PLL2Q:  /* PLL2 is used as clock source for USART2*/
//  243         /* PLL2 input clock, parameters M, N & Q configuration and clock output (PLL2ClockOut) */
//  244         ret = RCCEx_PLL2_Config(&(pPeriphClkInit->PLL2));
??HAL_RCCEx_PeriphCLKConfig_16:
        ADDS     R0,R4,#+8      
          CFI FunCall RCCEx_PLL2_Config
        BL       RCCEx_PLL2_Config
        MOVS     R5,R0          
//  245         /* USART2 clock source config set later after clock selection check */
//  246         break;
        B.N      ??HAL_RCCEx_PeriphCLKConfig_22
//  247 
//  248 #if defined(RCC_USART2CLKSOURCE_PLL3Q)
//  249       case RCC_USART2CLKSOURCE_PLL3Q:  /* PLL3 is used as clock source for USART2*/
//  250         /* PLL3  input clock, parameters M, N & Q configuration clock output (PLL3ClockOut) */
//  251         ret = RCCEx_PLL3_Config(&(pPeriphClkInit->PLL3));
??HAL_RCCEx_PeriphCLKConfig_17:
        ADDS     R0,R4,#+48     
          CFI FunCall RCCEx_PLL3_Config
        BL       RCCEx_PLL3_Config
        MOVS     R5,R0          
//  252         /* USART2 clock source config set later after clock selection check */
//  253         break;
        B.N      ??HAL_RCCEx_PeriphCLKConfig_22
//  254 #endif /* RCC_USART2CLKSOURCE_PLL3 */
//  255 
//  256       case RCC_USART2CLKSOURCE_HSI:      /* HSI clock is used as source of USART2 clock*/
//  257         /* USART2 clock source config set later after clock selection check */
//  258         break;
??HAL_RCCEx_PeriphCLKConfig_18:
        B.N      ??HAL_RCCEx_PeriphCLKConfig_22
//  259 
//  260       case RCC_USART2CLKSOURCE_CSI:      /* CSI clock is used as source of USART2 clock*/
//  261         /* USART2 clock source config set later after clock selection check */
//  262         break;
??HAL_RCCEx_PeriphCLKConfig_19:
        B.N      ??HAL_RCCEx_PeriphCLKConfig_22
//  263 
//  264       case RCC_USART2CLKSOURCE_LSE:      /* LSE clock is used as source of USART2 clock*/
//  265         /* USART2 clock source config set later after clock selection check */
//  266         break;
??HAL_RCCEx_PeriphCLKConfig_20:
        B.N      ??HAL_RCCEx_PeriphCLKConfig_22
//  267 
//  268       default:
//  269         ret = HAL_ERROR;
??HAL_RCCEx_PeriphCLKConfig_21:
        MOVS     R5,#+1         
//  270         break;
//  271     }
//  272 
//  273     if (ret == HAL_OK)
??HAL_RCCEx_PeriphCLKConfig_22:
        MOVS     R0,R5          
        UXTB     R0,R0          
        CMP      R0,#+0         
        BNE.N    ??HAL_RCCEx_PeriphCLKConfig_23
//  274     {
//  275       /* Set the source of USART2 clock*/
//  276       __HAL_RCC_USART2_CONFIG(pPeriphClkInit->Usart2ClockSelection);
        LDR.W    R1,??HAL_RCCEx_PeriphCLKConfig_0+0x4
        LDR      R2,[R1, #+0]   
        BICS     R2,R2,#0x38    
        LDR      R0,[R4, #+96]  
        ORRS     R2,R0,R2       
        STR      R2,[R1, #+0]   
        B.N      ??HAL_RCCEx_PeriphCLKConfig_14
//  277     }
//  278     else
//  279     {
//  280       /* set overall return value */
//  281       status = ret;
??HAL_RCCEx_PeriphCLKConfig_23:
        MOVS     R6,R5          
//  282     }
//  283   }
//  284 
//  285   /*-------------------------- USART3 clock source configuration -------------------*/
//  286   if (((pPeriphClkInit->PeriphClockSelection) & RCC_PERIPHCLK_USART3) == RCC_PERIPHCLK_USART3)
??HAL_RCCEx_PeriphCLKConfig_14:
        LDRB     R0,[R4, #+0]   
        LSLS     R0,R0,#+29     
        BPL.N    ??HAL_RCCEx_PeriphCLKConfig_24
//  287   {
//  288     /* Check the parameters */
//  289     assert_param(IS_RCC_USART3CLKSOURCE(pPeriphClkInit->Usart3ClockSelection));
//  290 
//  291     switch (pPeriphClkInit->Usart3ClockSelection)
        LDR      R0,[R4, #+100] 
        CMP      R0,#+0         
        BEQ.N    ??HAL_RCCEx_PeriphCLKConfig_25
        CMP      R0,#+64        
        BEQ.N    ??HAL_RCCEx_PeriphCLKConfig_26
        CMP      R0,#+128       
        BEQ.N    ??HAL_RCCEx_PeriphCLKConfig_27
        CMP      R0,#+192       
        BEQ.N    ??HAL_RCCEx_PeriphCLKConfig_28
        CMP      R0,#+256       
        BEQ.N    ??HAL_RCCEx_PeriphCLKConfig_29
        CMP      R0,#+320       
        BEQ.N    ??HAL_RCCEx_PeriphCLKConfig_30
        B.N      ??HAL_RCCEx_PeriphCLKConfig_31
//  292     {
//  293       case RCC_USART3CLKSOURCE_PCLK1:      /* PCLK1 is used as clock source for USART3*/
//  294 
//  295         /* USART3 clock source config set later after clock selection check */
//  296         break;
??HAL_RCCEx_PeriphCLKConfig_25:
        B.N      ??HAL_RCCEx_PeriphCLKConfig_32
//  297 
//  298       case RCC_USART3CLKSOURCE_PLL2Q:  /* PLL2 is used as clock source for USART3*/
//  299         /* PLL2 input clock, parameters M, N & Q configuration and clock output (PLL2ClockOut) */
//  300         ret = RCCEx_PLL2_Config(&(pPeriphClkInit->PLL2));
??HAL_RCCEx_PeriphCLKConfig_26:
        ADDS     R0,R4,#+8      
          CFI FunCall RCCEx_PLL2_Config
        BL       RCCEx_PLL2_Config
        MOVS     R5,R0          
//  301         /* USART3 clock source config set later after clock selection check */
//  302         break;
        B.N      ??HAL_RCCEx_PeriphCLKConfig_32
//  303 
//  304 #if defined(RCC_USART3CLKSOURCE_PLL3Q)
//  305       case RCC_USART3CLKSOURCE_PLL3Q:  /* PLL3 is used as clock source for USART3*/
//  306         /* PLL3  input clock, parameters M, N & Q configuration clock output (PLL3ClockOut) */
//  307         ret = RCCEx_PLL3_Config(&(pPeriphClkInit->PLL3));
??HAL_RCCEx_PeriphCLKConfig_27:
        ADDS     R0,R4,#+48     
          CFI FunCall RCCEx_PLL3_Config
        BL       RCCEx_PLL3_Config
        MOVS     R5,R0          
//  308         /* USART3 clock source config set later after clock selection check */
//  309         break;
        B.N      ??HAL_RCCEx_PeriphCLKConfig_32
//  310 #endif /* RCC_USART3CLKSOURCE_PLL3 */
//  311 
//  312       case RCC_USART3CLKSOURCE_HSI:      /* HSI clock is used as source of USART3 clock*/
//  313         /* USART3 clock source config set later after clock selection check */
//  314         break;
??HAL_RCCEx_PeriphCLKConfig_28:
        B.N      ??HAL_RCCEx_PeriphCLKConfig_32
//  315 
//  316       case RCC_USART3CLKSOURCE_CSI:      /* CSI clock is used as source of USART3 clock*/
//  317         /* USART3 clock source config set later after clock selection check */
//  318         break;
??HAL_RCCEx_PeriphCLKConfig_29:
        B.N      ??HAL_RCCEx_PeriphCLKConfig_32
//  319 
//  320       case RCC_USART3CLKSOURCE_LSE:      /* LSE clock is used as source of USART3 clock*/
//  321         /* USART3 clock source config set later after clock selection check */
//  322         break;
??HAL_RCCEx_PeriphCLKConfig_30:
        B.N      ??HAL_RCCEx_PeriphCLKConfig_32
//  323 
//  324       default:
//  325         ret = HAL_ERROR;
??HAL_RCCEx_PeriphCLKConfig_31:
        MOVS     R5,#+1         
//  326         break;
//  327     }
//  328 
//  329     if (ret == HAL_OK)
??HAL_RCCEx_PeriphCLKConfig_32:
        MOVS     R0,R5          
        UXTB     R0,R0          
        CMP      R0,#+0         
        BNE.N    ??HAL_RCCEx_PeriphCLKConfig_33
//  330     {
//  331       /* Set the source of USART3 clock*/
//  332       __HAL_RCC_USART3_CONFIG(pPeriphClkInit->Usart3ClockSelection);
        LDR.W    R1,??HAL_RCCEx_PeriphCLKConfig_0+0x4
        LDR      R2,[R1, #+0]   
        BICS     R2,R2,#0x1C0   
        LDR      R0,[R4, #+100] 
        ORRS     R2,R0,R2       
        STR      R2,[R1, #+0]   
        B.N      ??HAL_RCCEx_PeriphCLKConfig_24
//  333     }
//  334     else
//  335     {
//  336       /* set overall return value */
//  337       status = ret;
??HAL_RCCEx_PeriphCLKConfig_33:
        MOVS     R6,R5          
//  338     }
//  339   }
//  340 
//  341 #if defined(UART4)
//  342   /*-------------------------- UART4 clock source configuration --------------------*/
//  343   if (((pPeriphClkInit->PeriphClockSelection) & RCC_PERIPHCLK_UART4) == RCC_PERIPHCLK_UART4)
??HAL_RCCEx_PeriphCLKConfig_24:
        LDRB     R0,[R4, #+0]   
        LSLS     R0,R0,#+28     
        BPL.N    ??HAL_RCCEx_PeriphCLKConfig_34
//  344   {
//  345     /* Check the parameters */
//  346     assert_param(IS_RCC_UART4CLKSOURCE(pPeriphClkInit->Uart4ClockSelection));
//  347 
//  348     switch (pPeriphClkInit->Uart4ClockSelection)
        LDR      R0,[R4, #+104] 
        CMP      R0,#+0         
        BEQ.N    ??HAL_RCCEx_PeriphCLKConfig_35
        CMP      R0,#+512       
        BEQ.N    ??HAL_RCCEx_PeriphCLKConfig_36
        CMP      R0,#+1024      
        BEQ.N    ??HAL_RCCEx_PeriphCLKConfig_37
        CMP      R0,#+1536      
        BEQ.N    ??HAL_RCCEx_PeriphCLKConfig_38
        CMP      R0,#+2048      
        BEQ.N    ??HAL_RCCEx_PeriphCLKConfig_39
        CMP      R0,#+2560      
        BEQ.N    ??HAL_RCCEx_PeriphCLKConfig_40
        B.N      ??HAL_RCCEx_PeriphCLKConfig_41
//  349     {
//  350       case RCC_UART4CLKSOURCE_PCLK1:      /* PCLK1 is used as clock source for UART4*/
//  351 
//  352         /* UART4 clock source config set later after clock selection check */
//  353         break;
??HAL_RCCEx_PeriphCLKConfig_35:
        B.N      ??HAL_RCCEx_PeriphCLKConfig_42
//  354 
//  355       case RCC_UART4CLKSOURCE_PLL2Q:  /* PLL2 is used as clock source for UART4*/
//  356         /* PLL2 input clock, parameters M, N & Q configuration and clock output (PLL2ClockOut) */
//  357         ret = RCCEx_PLL2_Config(&(pPeriphClkInit->PLL2));
??HAL_RCCEx_PeriphCLKConfig_36:
        ADDS     R0,R4,#+8      
          CFI FunCall RCCEx_PLL2_Config
        BL       RCCEx_PLL2_Config
        MOVS     R5,R0          
//  358         /* UART4 clock source config set later after clock selection check */
//  359         break;
        B.N      ??HAL_RCCEx_PeriphCLKConfig_42
//  360 
//  361       case RCC_UART4CLKSOURCE_PLL3Q:  /* PLL3 is used as clock source for UART4*/
//  362         /* PLL3  input clock, parameters M, N & Q configuration clock output (PLL3ClockOut) */
//  363         ret = RCCEx_PLL3_Config(&(pPeriphClkInit->PLL3));
??HAL_RCCEx_PeriphCLKConfig_37:
        ADDS     R0,R4,#+48     
          CFI FunCall RCCEx_PLL3_Config
        BL       RCCEx_PLL3_Config
        MOVS     R5,R0          
//  364         /* UART4 clock source config set later after clock selection check */
//  365         break;
        B.N      ??HAL_RCCEx_PeriphCLKConfig_42
//  366 
//  367       case RCC_UART4CLKSOURCE_HSI:      /* HSI clock is used as source of UART4 clock*/
//  368         /* UART4 clock source config set later after clock selection check */
//  369         break;
??HAL_RCCEx_PeriphCLKConfig_38:
        B.N      ??HAL_RCCEx_PeriphCLKConfig_42
//  370 
//  371       case RCC_UART4CLKSOURCE_CSI:      /* CSI clock is used as source of UART4 clock*/
//  372         /* UART4 clock source config set later after clock selection check */
//  373         break;
??HAL_RCCEx_PeriphCLKConfig_39:
        B.N      ??HAL_RCCEx_PeriphCLKConfig_42
//  374 
//  375       case RCC_UART4CLKSOURCE_LSE:      /* LSE clock is used as source of UART4 clock*/
//  376         /* UART4 clock source config set later after clock selection check */
//  377         break;
??HAL_RCCEx_PeriphCLKConfig_40:
        B.N      ??HAL_RCCEx_PeriphCLKConfig_42
//  378 
//  379       default:
//  380         ret = HAL_ERROR;
??HAL_RCCEx_PeriphCLKConfig_41:
        MOVS     R5,#+1         
//  381         break;
//  382     }
//  383 
//  384     if (ret == HAL_OK)
??HAL_RCCEx_PeriphCLKConfig_42:
        MOVS     R0,R5          
        UXTB     R0,R0          
        CMP      R0,#+0         
        BNE.N    ??HAL_RCCEx_PeriphCLKConfig_43
//  385     {
//  386       /* Set the source of UART4 clock*/
//  387       __HAL_RCC_UART4_CONFIG(pPeriphClkInit->Uart4ClockSelection);
        LDR.W    R1,??HAL_RCCEx_PeriphCLKConfig_0+0x4
        LDR      R2,[R1, #+0]   
        BICS     R2,R2,#0xE00   
        LDR      R0,[R4, #+104] 
        ORRS     R2,R0,R2       
        STR      R2,[R1, #+0]   
        B.N      ??HAL_RCCEx_PeriphCLKConfig_34
//  388     }
//  389     else
//  390     {
//  391       /* set overall return value */
//  392       status = ret;
??HAL_RCCEx_PeriphCLKConfig_43:
        MOVS     R6,R5          
//  393     }
//  394   }
//  395 #endif /* UART4 */
//  396 
//  397 #if defined(UART5)
//  398   /*-------------------------- UART5 clock source configuration --------------------*/
//  399   if (((pPeriphClkInit->PeriphClockSelection) & RCC_PERIPHCLK_UART5) == RCC_PERIPHCLK_UART5)
??HAL_RCCEx_PeriphCLKConfig_34:
        LDRB     R0,[R4, #+0]   
        LSLS     R0,R0,#+27     
        BPL.N    ??HAL_RCCEx_PeriphCLKConfig_44
//  400   {
//  401     /* Check the parameters */
//  402     assert_param(IS_RCC_UART5CLKSOURCE(pPeriphClkInit->Uart5ClockSelection));
//  403 
//  404     switch (pPeriphClkInit->Uart5ClockSelection)
        LDR      R0,[R4, #+108] 
        CMP      R0,#+0         
        BEQ.N    ??HAL_RCCEx_PeriphCLKConfig_45
        CMP      R0,#+4096      
        BEQ.N    ??HAL_RCCEx_PeriphCLKConfig_46
        CMP      R0,#+8192      
        BEQ.N    ??HAL_RCCEx_PeriphCLKConfig_47
        CMP      R0,#+12288     
        BEQ.N    ??HAL_RCCEx_PeriphCLKConfig_48
        CMP      R0,#+16384     
        BEQ.N    ??HAL_RCCEx_PeriphCLKConfig_49
        CMP      R0,#+20480     
        BEQ.N    ??HAL_RCCEx_PeriphCLKConfig_50
        B.N      ??HAL_RCCEx_PeriphCLKConfig_51
//  405     {
//  406       case RCC_UART5CLKSOURCE_PCLK1:      /* PCLK1 is used as clock source for UART5*/
//  407 
//  408         /* UART5 clock source config set later after clock selection check */
//  409         break;
??HAL_RCCEx_PeriphCLKConfig_45:
        B.N      ??HAL_RCCEx_PeriphCLKConfig_52
//  410 
//  411       case RCC_UART5CLKSOURCE_PLL2Q:  /* PLL2 is used as clock source for UART5*/
//  412         /* PLL2 input clock, parameters M, N & Q configuration and clock output (PLL2ClockOut) */
//  413         ret = RCCEx_PLL2_Config(&(pPeriphClkInit->PLL2));
??HAL_RCCEx_PeriphCLKConfig_46:
        ADDS     R0,R4,#+8      
          CFI FunCall RCCEx_PLL2_Config
        BL       RCCEx_PLL2_Config
        MOVS     R5,R0          
//  414         /* UART5 clock source config set later after clock selection check */
//  415         break;
        B.N      ??HAL_RCCEx_PeriphCLKConfig_52
//  416 
//  417       case RCC_UART5CLKSOURCE_PLL3Q:  /* PLL3 is used as clock source for UART5*/
//  418         /* PLL3  input clock, parameters M, N & Q configuration clock output (PLL3ClockOut) */
//  419         ret = RCCEx_PLL3_Config(&(pPeriphClkInit->PLL3));
??HAL_RCCEx_PeriphCLKConfig_47:
        ADDS     R0,R4,#+48     
          CFI FunCall RCCEx_PLL3_Config
        BL       RCCEx_PLL3_Config
        MOVS     R5,R0          
//  420         /* UART5 clock source config set later after clock selection check */
//  421         break;
        B.N      ??HAL_RCCEx_PeriphCLKConfig_52
//  422 
//  423       case RCC_UART5CLKSOURCE_HSI:      /* HSI clock is used as source of UART5 clock*/
//  424         /* UART5 clock source config set later after clock selection check */
//  425         break;
??HAL_RCCEx_PeriphCLKConfig_48:
        B.N      ??HAL_RCCEx_PeriphCLKConfig_52
//  426 
//  427       case RCC_UART5CLKSOURCE_CSI:      /* CSI clock is used as source of UART5 clock*/
//  428         /* UART5 clock source config set later after clock selection check */
//  429         break;
??HAL_RCCEx_PeriphCLKConfig_49:
        B.N      ??HAL_RCCEx_PeriphCLKConfig_52
//  430 
//  431       case RCC_UART5CLKSOURCE_LSE:      /* LSE clock is used as source of UART5 clock*/
//  432         /* UART5 clock source config set later after clock selection check */
//  433         break;
??HAL_RCCEx_PeriphCLKConfig_50:
        B.N      ??HAL_RCCEx_PeriphCLKConfig_52
//  434 
//  435       default:
//  436         ret = HAL_ERROR;
??HAL_RCCEx_PeriphCLKConfig_51:
        MOVS     R5,#+1         
//  437         break;
//  438     }
//  439 
//  440     if (ret == HAL_OK)
??HAL_RCCEx_PeriphCLKConfig_52:
        MOVS     R0,R5          
        UXTB     R0,R0          
        CMP      R0,#+0         
        BNE.N    ??HAL_RCCEx_PeriphCLKConfig_53
//  441     {
//  442       /* Set the source of UART5 clock*/
//  443       __HAL_RCC_UART5_CONFIG(pPeriphClkInit->Uart5ClockSelection);
        LDR.W    R1,??HAL_RCCEx_PeriphCLKConfig_0+0x4
        LDR      R2,[R1, #+0]   
        BICS     R2,R2,#0x7000  
        LDR      R0,[R4, #+108] 
        ORRS     R2,R0,R2       
        STR      R2,[R1, #+0]   
        B.N      ??HAL_RCCEx_PeriphCLKConfig_44
//  444     }
//  445     else
//  446     {
//  447       /* set overall return value */
//  448       status = ret;
??HAL_RCCEx_PeriphCLKConfig_53:
        MOVS     R6,R5          
//  449     }
//  450   }
//  451 #endif /* UART5 */
//  452 
//  453 #if defined(USART6)
//  454   /*-------------------------- USART6 clock source configuration -------------------*/
//  455   if (((pPeriphClkInit->PeriphClockSelection) & RCC_PERIPHCLK_USART6) == RCC_PERIPHCLK_USART6)
??HAL_RCCEx_PeriphCLKConfig_44:
        LDRB     R0,[R4, #+0]   
        LSLS     R0,R0,#+26     
        BPL.N    ??HAL_RCCEx_PeriphCLKConfig_54
//  456   {
//  457     /* Check the parameters */
//  458     assert_param(IS_RCC_USART6CLKSOURCE(pPeriphClkInit->Usart6ClockSelection));
//  459 
//  460     switch (pPeriphClkInit->Usart6ClockSelection)
        LDR      R0,[R4, #+112] 
        CMP      R0,#+0         
        BEQ.N    ??HAL_RCCEx_PeriphCLKConfig_55
        CMP      R0,#+32768     
        BEQ.N    ??HAL_RCCEx_PeriphCLKConfig_56
        CMP      R0,#+65536     
        BEQ.N    ??HAL_RCCEx_PeriphCLKConfig_57
        CMP      R0,#+98304     
        BEQ.N    ??HAL_RCCEx_PeriphCLKConfig_58
        CMP      R0,#+131072    
        BEQ.N    ??HAL_RCCEx_PeriphCLKConfig_59
        CMP      R0,#+163840    
        BEQ.N    ??HAL_RCCEx_PeriphCLKConfig_60
        B.N      ??HAL_RCCEx_PeriphCLKConfig_61
//  461     {
//  462       case RCC_USART6CLKSOURCE_PCLK1:      /* PCLK1 is used as clock source for USART6*/
//  463 
//  464         /* USART6 clock source config set later after clock selection check */
//  465         break;
??HAL_RCCEx_PeriphCLKConfig_55:
        B.N      ??HAL_RCCEx_PeriphCLKConfig_62
//  466 
//  467       case RCC_USART6CLKSOURCE_PLL2Q:  /* PLL2 is used as clock source for USART6*/
//  468         /* PLL2 input clock, parameters M, N & Q configuration and clock output (PLL2ClockOut) */
//  469         ret = RCCEx_PLL2_Config(&(pPeriphClkInit->PLL2));
??HAL_RCCEx_PeriphCLKConfig_56:
        ADDS     R0,R4,#+8      
          CFI FunCall RCCEx_PLL2_Config
        BL       RCCEx_PLL2_Config
        MOVS     R5,R0          
//  470         /* USART6 clock source config set later after clock selection check */
//  471         break;
        B.N      ??HAL_RCCEx_PeriphCLKConfig_62
//  472 
//  473       case RCC_USART6CLKSOURCE_PLL3Q:  /* PLL3 is used as clock source for USART6*/
//  474         /* PLL3  input clock, parameters M, N & Q configuration clock output (PLL3ClockOut) */
//  475         ret = RCCEx_PLL3_Config(&(pPeriphClkInit->PLL3));
??HAL_RCCEx_PeriphCLKConfig_57:
        ADDS     R0,R4,#+48     
          CFI FunCall RCCEx_PLL3_Config
        BL       RCCEx_PLL3_Config
        MOVS     R5,R0          
//  476         /* USART6 clock source config set later after clock selection check */
//  477         break;
        B.N      ??HAL_RCCEx_PeriphCLKConfig_62
//  478 
//  479       case RCC_USART6CLKSOURCE_HSI:      /* HSI clock is used as source of USART6 clock*/
//  480         /* USART6 clock source config set later after clock selection check */
//  481         break;
??HAL_RCCEx_PeriphCLKConfig_58:
        B.N      ??HAL_RCCEx_PeriphCLKConfig_62
//  482 
//  483       case RCC_USART6CLKSOURCE_CSI:      /* CSI clock is used as source of USART6 clock*/
//  484         /* USART6 clock source config set later after clock selection check */
//  485         break;
??HAL_RCCEx_PeriphCLKConfig_59:
        B.N      ??HAL_RCCEx_PeriphCLKConfig_62
//  486 
//  487       case RCC_USART6CLKSOURCE_LSE:      /* LSE clock is used as source of USART6 clock*/
//  488         /* USART6 clock source config set later after clock selection check */
//  489         break;
??HAL_RCCEx_PeriphCLKConfig_60:
        B.N      ??HAL_RCCEx_PeriphCLKConfig_62
//  490 
//  491       default:
//  492         ret = HAL_ERROR;
??HAL_RCCEx_PeriphCLKConfig_61:
        MOVS     R5,#+1         
//  493         break;
//  494     }
//  495 
//  496     if (ret == HAL_OK)
??HAL_RCCEx_PeriphCLKConfig_62:
        MOVS     R0,R5          
        UXTB     R0,R0          
        CMP      R0,#+0         
        BNE.N    ??HAL_RCCEx_PeriphCLKConfig_63
//  497     {
//  498       /* Set the source of USART6 clock*/
//  499       __HAL_RCC_USART6_CONFIG(pPeriphClkInit->Usart6ClockSelection);
        LDR.W    R1,??HAL_RCCEx_PeriphCLKConfig_0+0x4
        LDR      R2,[R1, #+0]   
        BICS     R2,R2,#0x38000 
        LDR      R0,[R4, #+112] 
        ORRS     R2,R0,R2       
        STR      R2,[R1, #+0]   
        B.N      ??HAL_RCCEx_PeriphCLKConfig_54
//  500     }
//  501     else
//  502     {
//  503       /* set overall return value */
//  504       status = ret;
??HAL_RCCEx_PeriphCLKConfig_63:
        MOVS     R6,R5          
//  505     }
//  506   }
//  507 #endif /* USART6 */
//  508 
//  509 #if defined(UART7)
//  510   /*-------------------------- UART7 clock source configuration -------------------*/
//  511   if (((pPeriphClkInit->PeriphClockSelection) & RCC_PERIPHCLK_UART7) == RCC_PERIPHCLK_UART7)
??HAL_RCCEx_PeriphCLKConfig_54:
        LDRB     R0,[R4, #+0]   
        LSLS     R0,R0,#+25     
        BPL.N    ??HAL_RCCEx_PeriphCLKConfig_64
//  512   {
//  513     /* Check the parameters */
//  514     assert_param(IS_RCC_UART7CLKSOURCE(pPeriphClkInit->Uart7ClockSelection));
//  515 
//  516     switch (pPeriphClkInit->Uart7ClockSelection)
        LDR      R0,[R4, #+116] 
        CMP      R0,#+0         
        BEQ.N    ??HAL_RCCEx_PeriphCLKConfig_65
        CMP      R0,#+262144    
        BEQ.N    ??HAL_RCCEx_PeriphCLKConfig_66
        CMP      R0,#+524288    
        BEQ.N    ??HAL_RCCEx_PeriphCLKConfig_67
        CMP      R0,#+786432    
        BEQ.N    ??HAL_RCCEx_PeriphCLKConfig_68
        CMP      R0,#+1048576   
        BEQ.N    ??HAL_RCCEx_PeriphCLKConfig_69
        CMP      R0,#+1310720   
        BEQ.N    ??HAL_RCCEx_PeriphCLKConfig_70
        B.N      ??HAL_RCCEx_PeriphCLKConfig_71
//  517     {
//  518       case RCC_UART7CLKSOURCE_PCLK1:      /* PCLK1 is used as clock source for UART7*/
//  519 
//  520         /* UART7 clock source config set later after clock selection check */
//  521         break;
??HAL_RCCEx_PeriphCLKConfig_65:
        B.N      ??HAL_RCCEx_PeriphCLKConfig_72
//  522 
//  523       case RCC_UART7CLKSOURCE_PLL2Q:  /* PLL2 is used as clock source for UART7*/
//  524         /* PLL2 input clock, parameters M, N & Q configuration and clock output (PLL2ClockOut) */
//  525         ret = RCCEx_PLL2_Config(&(pPeriphClkInit->PLL2));
??HAL_RCCEx_PeriphCLKConfig_66:
        ADDS     R0,R4,#+8      
          CFI FunCall RCCEx_PLL2_Config
        BL       RCCEx_PLL2_Config
        MOVS     R5,R0          
//  526         /* UART7 clock source config set later after clock selection check */
//  527         break;
        B.N      ??HAL_RCCEx_PeriphCLKConfig_72
//  528 
//  529       case RCC_UART7CLKSOURCE_PLL3Q:  /* PLL3 is used as clock source for UART7*/
//  530         /* PLL3  input clock, parameters M, N & Q configuration clock output (PLL3ClockOut) */
//  531         ret = RCCEx_PLL3_Config(&(pPeriphClkInit->PLL3));
??HAL_RCCEx_PeriphCLKConfig_67:
        ADDS     R0,R4,#+48     
          CFI FunCall RCCEx_PLL3_Config
        BL       RCCEx_PLL3_Config
        MOVS     R5,R0          
//  532         /* UART7 clock source config set later after clock selection check */
//  533         break;
        B.N      ??HAL_RCCEx_PeriphCLKConfig_72
//  534 
//  535       case RCC_UART7CLKSOURCE_HSI:      /* HSI clock is used as source of UART7 clock*/
//  536         /* UART7 clock source config set later after clock selection check */
//  537         break;
??HAL_RCCEx_PeriphCLKConfig_68:
        B.N      ??HAL_RCCEx_PeriphCLKConfig_72
//  538 
//  539       case RCC_UART7CLKSOURCE_CSI:      /* CSI clock is used as source of UART7 clock*/
//  540         /* UART7 clock source config set later after clock selection check */
//  541         break;
??HAL_RCCEx_PeriphCLKConfig_69:
        B.N      ??HAL_RCCEx_PeriphCLKConfig_72
//  542 
//  543       case RCC_UART7CLKSOURCE_LSE:      /* LSE clock is used as source of UART7 clock*/
//  544         /* UART7 clock source config set later after clock selection check */
//  545         break;
??HAL_RCCEx_PeriphCLKConfig_70:
        B.N      ??HAL_RCCEx_PeriphCLKConfig_72
//  546 
//  547       default:
//  548         ret = HAL_ERROR;
??HAL_RCCEx_PeriphCLKConfig_71:
        MOVS     R5,#+1         
//  549         break;
//  550     }
//  551 
//  552     if (ret == HAL_OK)
??HAL_RCCEx_PeriphCLKConfig_72:
        MOVS     R0,R5          
        UXTB     R0,R0          
        CMP      R0,#+0         
        BNE.N    ??HAL_RCCEx_PeriphCLKConfig_73
//  553     {
//  554       /* Set the source of UART7 clock*/
//  555       __HAL_RCC_UART7_CONFIG(pPeriphClkInit->Uart7ClockSelection);
        LDR.W    R1,??HAL_RCCEx_PeriphCLKConfig_0+0x4
        LDR      R2,[R1, #+0]   
        BICS     R2,R2,#0x1C0000
        LDR      R0,[R4, #+116] 
        ORRS     R2,R0,R2       
        STR      R2,[R1, #+0]   
        B.N      ??HAL_RCCEx_PeriphCLKConfig_64
//  556     }
//  557     else
//  558     {
//  559       /* set overall return value */
//  560       status = ret;
??HAL_RCCEx_PeriphCLKConfig_73:
        MOVS     R6,R5          
//  561     }
//  562   }
//  563 #endif /* UART7 */
//  564 
//  565 #if defined(UART8)
//  566   /*-------------------------- UART8 clock source configuration -------------------*/
//  567   if (((pPeriphClkInit->PeriphClockSelection) & RCC_PERIPHCLK_UART8) == RCC_PERIPHCLK_UART8)
??HAL_RCCEx_PeriphCLKConfig_64:
        LDRB     R0,[R4, #+0]   
        LSLS     R0,R0,#+24     
        BPL.N    ??HAL_RCCEx_PeriphCLKConfig_74
//  568   {
//  569     /* Check the parameters */
//  570     assert_param(IS_RCC_UART8CLKSOURCE(pPeriphClkInit->Uart8ClockSelection));
//  571 
//  572     switch (pPeriphClkInit->Uart8ClockSelection)
        LDR      R0,[R4, #+120] 
        CMP      R0,#+0         
        BEQ.N    ??HAL_RCCEx_PeriphCLKConfig_75
        CMP      R0,#+2097152   
        BEQ.N    ??HAL_RCCEx_PeriphCLKConfig_76
        CMP      R0,#+4194304   
        BEQ.N    ??HAL_RCCEx_PeriphCLKConfig_77
        CMP      R0,#+6291456   
        BEQ.N    ??HAL_RCCEx_PeriphCLKConfig_78
        CMP      R0,#+8388608   
        BEQ.N    ??HAL_RCCEx_PeriphCLKConfig_79
        CMP      R0,#+10485760  
        BEQ.N    ??HAL_RCCEx_PeriphCLKConfig_80
        B.N      ??HAL_RCCEx_PeriphCLKConfig_81
//  573     {
//  574       case RCC_UART8CLKSOURCE_PCLK1:      /* PCLK1 is used as clock source for UART8*/
//  575 
//  576         /* UART8 clock source config set later after clock selection check */
//  577         break;
??HAL_RCCEx_PeriphCLKConfig_75:
        B.N      ??HAL_RCCEx_PeriphCLKConfig_82
//  578 
//  579       case RCC_UART8CLKSOURCE_PLL2Q:  /* PLL2 is used as clock source for UART8*/
//  580         /* PLL2 input clock, parameters M, N & Q configuration and clock output (PLL2ClockOut) */
//  581         ret = RCCEx_PLL2_Config(&(pPeriphClkInit->PLL2));
??HAL_RCCEx_PeriphCLKConfig_76:
        ADDS     R0,R4,#+8      
          CFI FunCall RCCEx_PLL2_Config
        BL       RCCEx_PLL2_Config
        MOVS     R5,R0          
//  582         /* UART8 clock source config set later after clock selection check */
//  583         break;
        B.N      ??HAL_RCCEx_PeriphCLKConfig_82
//  584 
//  585       case RCC_UART8CLKSOURCE_PLL3Q:  /* PLL3 is used as clock source for UART8*/
//  586         /* PLL3  input clock, parameters M, N & Q configuration clock output (PLL3ClockOut) */
//  587         ret = RCCEx_PLL3_Config(&(pPeriphClkInit->PLL3));
??HAL_RCCEx_PeriphCLKConfig_77:
        ADDS     R0,R4,#+48     
          CFI FunCall RCCEx_PLL3_Config
        BL       RCCEx_PLL3_Config
        MOVS     R5,R0          
//  588         /* UART8 clock source config set later after clock selection check */
//  589         break;
        B.N      ??HAL_RCCEx_PeriphCLKConfig_82
//  590 
//  591       case RCC_UART8CLKSOURCE_HSI:      /* HSI clock is used as source of UART8 clock*/
//  592         /* UART8 clock source config set later after clock selection check */
//  593         break;
??HAL_RCCEx_PeriphCLKConfig_78:
        B.N      ??HAL_RCCEx_PeriphCLKConfig_82
//  594 
//  595       case RCC_UART8CLKSOURCE_CSI:      /* CSI clock is used as source of UART8 clock*/
//  596         /* UART8 clock source config set later after clock selection check */
//  597         break;
??HAL_RCCEx_PeriphCLKConfig_79:
        B.N      ??HAL_RCCEx_PeriphCLKConfig_82
//  598 
//  599       case RCC_UART8CLKSOURCE_LSE:      /* LSE clock is used as source of UART8 clock*/
//  600         /* UART8 clock source config set later after clock selection check */
//  601         break;
??HAL_RCCEx_PeriphCLKConfig_80:
        B.N      ??HAL_RCCEx_PeriphCLKConfig_82
//  602 
//  603       default:
//  604         ret = HAL_ERROR;
??HAL_RCCEx_PeriphCLKConfig_81:
        MOVS     R5,#+1         
//  605         break;
//  606     }
//  607 
//  608     if (ret == HAL_OK)
??HAL_RCCEx_PeriphCLKConfig_82:
        MOVS     R0,R5          
        UXTB     R0,R0          
        CMP      R0,#+0         
        BNE.N    ??HAL_RCCEx_PeriphCLKConfig_83
//  609     {
//  610       /* Set the source of UART8 clock*/
//  611       __HAL_RCC_UART8_CONFIG(pPeriphClkInit->Uart8ClockSelection);
        LDR.W    R1,??HAL_RCCEx_PeriphCLKConfig_0+0x4
        LDR      R2,[R1, #+0]   
        BICS     R2,R2,#0xE00000
        LDR      R0,[R4, #+120] 
        ORRS     R2,R0,R2       
        STR      R2,[R1, #+0]   
        B.N      ??HAL_RCCEx_PeriphCLKConfig_74
//  612     }
//  613     else
//  614     {
//  615       /* set overall return value */
//  616       status = ret;
??HAL_RCCEx_PeriphCLKConfig_83:
        MOVS     R6,R5          
//  617     }
//  618   }
//  619 #endif /* UART9 */
//  620 
//  621 #if defined(UART9)
//  622   /*-------------------------- UART9 clock source configuration -------------------*/
//  623   if (((pPeriphClkInit->PeriphClockSelection) & RCC_PERIPHCLK_UART9) == RCC_PERIPHCLK_UART9)
??HAL_RCCEx_PeriphCLKConfig_74:
        LDRD     R0,R1,[R4, #+0]
        LSLS     R0,R0,#+23     
        BPL.N    ??HAL_RCCEx_PeriphCLKConfig_84
//  624   {
//  625     /* Check the parameters */
//  626     assert_param(IS_RCC_UART9CLKSOURCE(pPeriphClkInit->Uart9ClockSelection));
//  627 
//  628     switch (pPeriphClkInit->Uart9ClockSelection)
        LDR      R0,[R4, #+124] 
        CMP      R0,#+0         
        BEQ.N    ??HAL_RCCEx_PeriphCLKConfig_85
        CMP      R0,#+16777216  
        BEQ.N    ??HAL_RCCEx_PeriphCLKConfig_86
        CMP      R0,#+33554432  
        BEQ.N    ??HAL_RCCEx_PeriphCLKConfig_87
        CMP      R0,#+50331648  
        BEQ.N    ??HAL_RCCEx_PeriphCLKConfig_88
        CMP      R0,#+67108864  
        BEQ.N    ??HAL_RCCEx_PeriphCLKConfig_89
        CMP      R0,#+83886080  
        BEQ.N    ??HAL_RCCEx_PeriphCLKConfig_90
        B.N      ??HAL_RCCEx_PeriphCLKConfig_91
//  629     {
//  630       case RCC_UART9CLKSOURCE_PCLK1:      /* PCLK1 is used as clock source for UART9*/
//  631 
//  632         /* UART9 clock source config set later after clock selection check */
//  633         break;
??HAL_RCCEx_PeriphCLKConfig_85:
        B.N      ??HAL_RCCEx_PeriphCLKConfig_92
//  634 
//  635       case RCC_UART9CLKSOURCE_PLL2Q:  /* PLL2 is used as clock source for UART9*/
//  636         /* PLL2 input clock, parameters M, N & Q configuration and clock output (PLL2ClockOut) */
//  637         ret = RCCEx_PLL2_Config(&(pPeriphClkInit->PLL2));
??HAL_RCCEx_PeriphCLKConfig_86:
        ADDS     R0,R4,#+8      
          CFI FunCall RCCEx_PLL2_Config
        BL       RCCEx_PLL2_Config
        MOVS     R5,R0          
//  638         /* UART9 clock source config set later after clock selection check */
//  639         break;
        B.N      ??HAL_RCCEx_PeriphCLKConfig_92
//  640 
//  641       case RCC_UART9CLKSOURCE_PLL3Q:  /* PLL3 is used as clock source for UART9*/
//  642         /* PLL3  input clock, parameters M, N & Q configuration clock output (PLL3ClockOut) */
//  643         ret = RCCEx_PLL3_Config(&(pPeriphClkInit->PLL3));
??HAL_RCCEx_PeriphCLKConfig_87:
        ADDS     R0,R4,#+48     
          CFI FunCall RCCEx_PLL3_Config
        BL       RCCEx_PLL3_Config
        MOVS     R5,R0          
//  644         /* UART9 clock source config set later after clock selection check */
//  645         break;
        B.N      ??HAL_RCCEx_PeriphCLKConfig_92
//  646 
//  647       case RCC_UART9CLKSOURCE_HSI:      /* HSI clock is used as source of UART9 clock*/
//  648         /* UART9 clock source config set later after clock selection check */
//  649         break;
??HAL_RCCEx_PeriphCLKConfig_88:
        B.N      ??HAL_RCCEx_PeriphCLKConfig_92
//  650 
//  651       case RCC_UART9CLKSOURCE_CSI:      /* CSI clock is used as source of UART9 clock*/
//  652         /* UART9 clock source config set later after clock selection check */
//  653         break;
??HAL_RCCEx_PeriphCLKConfig_89:
        B.N      ??HAL_RCCEx_PeriphCLKConfig_92
//  654 
//  655       case RCC_UART9CLKSOURCE_LSE:      /* LSE clock is used as source of UART9 clock*/
//  656         /* UART9 clock source config set later after clock selection check */
//  657         break;
??HAL_RCCEx_PeriphCLKConfig_90:
        B.N      ??HAL_RCCEx_PeriphCLKConfig_92
//  658 
//  659       default:
//  660         ret = HAL_ERROR;
??HAL_RCCEx_PeriphCLKConfig_91:
        MOVS     R5,#+1         
//  661         break;
//  662     }
//  663 
//  664     if (ret == HAL_OK)
??HAL_RCCEx_PeriphCLKConfig_92:
        MOVS     R0,R5          
        UXTB     R0,R0          
        CMP      R0,#+0         
        BNE.N    ??HAL_RCCEx_PeriphCLKConfig_93
//  665     {
//  666       /* Set the source of UART9 clock*/
//  667       __HAL_RCC_UART9_CONFIG(pPeriphClkInit->Uart9ClockSelection);
        LDR.W    R1,??HAL_RCCEx_PeriphCLKConfig_0+0x4
        LDR      R2,[R1, #+0]   
        BICS     R2,R2,#0x7000000
        LDR      R0,[R4, #+124] 
        ORRS     R2,R0,R2       
        STR      R2,[R1, #+0]   
        B.N      ??HAL_RCCEx_PeriphCLKConfig_84
//  668     }
//  669     else
//  670     {
//  671       /* set overall return value */
//  672       status = ret;
??HAL_RCCEx_PeriphCLKConfig_93:
        MOVS     R6,R5          
//  673     }
//  674   }
//  675 #endif /* UART9 */
//  676 
//  677 #if defined(USART10)
//  678   /*-------------------------- USART10 clock source configuration -------------------*/
//  679   if (((pPeriphClkInit->PeriphClockSelection) & RCC_PERIPHCLK_USART10) == RCC_PERIPHCLK_USART10)
??HAL_RCCEx_PeriphCLKConfig_84:
        LDRD     R0,R1,[R4, #+0]
        LSLS     R0,R0,#+22     
        BPL.N    ??HAL_RCCEx_PeriphCLKConfig_94
//  680   {
//  681     /* Check the parameters */
//  682     assert_param(IS_RCC_USART10CLKSOURCE(pPeriphClkInit->Usart10ClockSelection));
//  683 
//  684     switch (pPeriphClkInit->Usart10ClockSelection)
        LDR      R0,[R4, #+128] 
        CMP      R0,#+0         
        BEQ.N    ??HAL_RCCEx_PeriphCLKConfig_95
        CMP      R0,#+134217728 
        BEQ.N    ??HAL_RCCEx_PeriphCLKConfig_96
        CMP      R0,#+268435456 
        BEQ.N    ??HAL_RCCEx_PeriphCLKConfig_97
        CMP      R0,#+402653184 
        BEQ.N    ??HAL_RCCEx_PeriphCLKConfig_98
        CMP      R0,#+536870912 
        BEQ.N    ??HAL_RCCEx_PeriphCLKConfig_99
        CMP      R0,#+671088640 
        BEQ.N    ??HAL_RCCEx_PeriphCLKConfig_100
        B.N      ??HAL_RCCEx_PeriphCLKConfig_101
//  685     {
//  686       case RCC_USART10CLKSOURCE_PCLK1:      /* PCLK1 is used as clock source for USART10*/
//  687 
//  688         /* USART10 clock source config set later after clock selection check */
//  689         break;
??HAL_RCCEx_PeriphCLKConfig_95:
        B.N      ??HAL_RCCEx_PeriphCLKConfig_102
//  690 
//  691       case RCC_USART10CLKSOURCE_PLL2Q:  /* PLL2 is used as clock source for USART10*/
//  692         /* PLL2 input clock, parameters M, N & Q configuration and clock output (PLL2ClockOut) */
//  693         ret = RCCEx_PLL2_Config(&(pPeriphClkInit->PLL2));
??HAL_RCCEx_PeriphCLKConfig_96:
        ADDS     R0,R4,#+8      
          CFI FunCall RCCEx_PLL2_Config
        BL       RCCEx_PLL2_Config
        MOVS     R5,R0          
//  694         /* USART10 clock source config set later after clock selection check */
//  695         break;
        B.N      ??HAL_RCCEx_PeriphCLKConfig_102
//  696 
//  697       case RCC_USART10CLKSOURCE_PLL3Q:  /* PLL3 is used as clock source for USART10*/
//  698         /* PLL3  input clock, parameters M, N & Q configuration clock output (PLL3ClockOut) */
//  699         ret = RCCEx_PLL3_Config(&(pPeriphClkInit->PLL3));
??HAL_RCCEx_PeriphCLKConfig_97:
        ADDS     R0,R4,#+48     
          CFI FunCall RCCEx_PLL3_Config
        BL       RCCEx_PLL3_Config
        MOVS     R5,R0          
//  700         /* USART10 clock source config set later after clock selection check */
//  701         break;
        B.N      ??HAL_RCCEx_PeriphCLKConfig_102
//  702 
//  703       case RCC_USART10CLKSOURCE_HSI:      /* HSI clock is used as source of USART10 clock*/
//  704         /* USART10 clock source config set later after clock selection check */
//  705         break;
??HAL_RCCEx_PeriphCLKConfig_98:
        B.N      ??HAL_RCCEx_PeriphCLKConfig_102
//  706 
//  707       case RCC_USART10CLKSOURCE_CSI:      /* CSI clock is used as source of USART10 clock*/
//  708         /* USART10 clock source config set later after clock selection check */
//  709         break;
??HAL_RCCEx_PeriphCLKConfig_99:
        B.N      ??HAL_RCCEx_PeriphCLKConfig_102
//  710 
//  711       case RCC_USART10CLKSOURCE_LSE:      /* LSE clock is used as source of USART10 clock*/
//  712         /* USART10 clock source config set later after clock selection check */
//  713         break;
??HAL_RCCEx_PeriphCLKConfig_100:
        B.N      ??HAL_RCCEx_PeriphCLKConfig_102
//  714 
//  715       default:
//  716         ret = HAL_ERROR;
??HAL_RCCEx_PeriphCLKConfig_101:
        MOVS     R5,#+1         
//  717         break;
//  718     }
//  719 
//  720     if (ret == HAL_OK)
??HAL_RCCEx_PeriphCLKConfig_102:
        MOVS     R0,R5          
        UXTB     R0,R0          
        CMP      R0,#+0         
        BNE.N    ??HAL_RCCEx_PeriphCLKConfig_103
//  721     {
//  722       /* Set the source of USART10 clock*/
//  723       __HAL_RCC_USART10_CONFIG(pPeriphClkInit->Usart10ClockSelection);
        LDR.W    R1,??HAL_RCCEx_PeriphCLKConfig_0+0x4
        LDR      R2,[R1, #+0]   
        BICS     R2,R2,#0x38000000
        LDR      R0,[R4, #+128] 
        ORRS     R2,R0,R2       
        STR      R2,[R1, #+0]   
        B.N      ??HAL_RCCEx_PeriphCLKConfig_94
//  724     }
//  725     else
//  726     {
//  727       /* set overall return value */
//  728       status = ret;
??HAL_RCCEx_PeriphCLKConfig_103:
        MOVS     R6,R5          
//  729     }
//  730   }
//  731 #endif /* USART10 */
//  732 
//  733 #if defined(USART11)
//  734   /*-------------------------- USART11 clock source configuration -------------------*/
//  735   if (((pPeriphClkInit->PeriphClockSelection) & RCC_PERIPHCLK_USART11) == RCC_PERIPHCLK_USART11)
??HAL_RCCEx_PeriphCLKConfig_94:
        LDRD     R0,R1,[R4, #+0]
        LSLS     R0,R0,#+21     
        BPL.N    ??HAL_RCCEx_PeriphCLKConfig_104
//  736   {
//  737     /* Check the parameters */
//  738     assert_param(IS_RCC_USART11CLKSOURCE(pPeriphClkInit->Usart11ClockSelection));
//  739 
//  740     switch (pPeriphClkInit->Usart11ClockSelection)
        LDR      R0,[R4, #+132] 
        CMP      R0,#+0         
        BEQ.N    ??HAL_RCCEx_PeriphCLKConfig_105
        CMP      R0,#+2         
        BEQ.N    ??HAL_RCCEx_PeriphCLKConfig_106
        BCC.N    ??HAL_RCCEx_PeriphCLKConfig_107
        CMP      R0,#+4         
        BEQ.N    ??HAL_RCCEx_PeriphCLKConfig_108
        BCC.N    ??HAL_RCCEx_PeriphCLKConfig_109
        CMP      R0,#+5         
        BEQ.N    ??HAL_RCCEx_PeriphCLKConfig_110
        B.N      ??HAL_RCCEx_PeriphCLKConfig_111
//  741     {
//  742       case RCC_USART11CLKSOURCE_PCLK1:      /* PCLK1 is used as clock source for USART11*/
//  743 
//  744         /* USART11 clock source config set later after clock selection check */
//  745         break;
??HAL_RCCEx_PeriphCLKConfig_105:
        B.N      ??HAL_RCCEx_PeriphCLKConfig_112
//  746 
//  747       case RCC_USART11CLKSOURCE_PLL2Q:  /* PLL2 is used as clock source for USART11*/
//  748         /* PLL2 input clock, parameters M, N & Q configuration and clock output (PLL2ClockOut) */
//  749         ret = RCCEx_PLL2_Config(&(pPeriphClkInit->PLL2));
??HAL_RCCEx_PeriphCLKConfig_107:
        ADDS     R0,R4,#+8      
          CFI FunCall RCCEx_PLL2_Config
        BL       RCCEx_PLL2_Config
        MOVS     R5,R0          
//  750         /* USART11 clock source config set later after clock selection check */
//  751         break;
        B.N      ??HAL_RCCEx_PeriphCLKConfig_112
//  752 
//  753       case RCC_USART11CLKSOURCE_PLL3Q:  /* PLL3 is used as clock source for USART11*/
//  754         /* PLL3  input clock, parameters M, N & Q configuration clock output (PLL3ClockOut) */
//  755         ret = RCCEx_PLL3_Config(&(pPeriphClkInit->PLL3));
??HAL_RCCEx_PeriphCLKConfig_106:
        ADDS     R0,R4,#+48     
          CFI FunCall RCCEx_PLL3_Config
        BL       RCCEx_PLL3_Config
        MOVS     R5,R0          
//  756         /* USART11 clock source config set later after clock selection check */
//  757         break;
        B.N      ??HAL_RCCEx_PeriphCLKConfig_112
//  758 
//  759       case RCC_USART11CLKSOURCE_HSI:      /* HSI clock is used as source of USART11 clock*/
//  760         /* USART11 clock source config set later after clock selection check */
//  761         break;
??HAL_RCCEx_PeriphCLKConfig_109:
        B.N      ??HAL_RCCEx_PeriphCLKConfig_112
//  762 
//  763       case RCC_USART11CLKSOURCE_CSI:      /* CSI clock is used as source of USART11 clock*/
//  764         /* USART11 clock source config set later after clock selection check */
//  765         break;
??HAL_RCCEx_PeriphCLKConfig_108:
        B.N      ??HAL_RCCEx_PeriphCLKConfig_112
//  766 
//  767       case RCC_USART11CLKSOURCE_LSE:      /* LSE clock is used as source of USART11 clock*/
//  768         /* USART11 clock source config set later after clock selection check */
//  769         break;
??HAL_RCCEx_PeriphCLKConfig_110:
        B.N      ??HAL_RCCEx_PeriphCLKConfig_112
//  770 
//  771       default:
//  772         ret = HAL_ERROR;
??HAL_RCCEx_PeriphCLKConfig_111:
        MOVS     R5,#+1         
//  773         break;
//  774     }
//  775 
//  776     if (ret == HAL_OK)
??HAL_RCCEx_PeriphCLKConfig_112:
        MOVS     R0,R5          
        UXTB     R0,R0          
        CMP      R0,#+0         
        BNE.N    ??HAL_RCCEx_PeriphCLKConfig_113
//  777     {
//  778       /* Set the source of USART11 clock*/
//  779       __HAL_RCC_USART11_CONFIG(pPeriphClkInit->Usart11ClockSelection);
        LDR.W    R1,??HAL_RCCEx_PeriphCLKConfig_1
        LDR      R2,[R1, #+0]   
        LSRS     R2,R2,#+3      
        LSLS     R2,R2,#+3      
        LDR      R0,[R4, #+132] 
        ORRS     R2,R0,R2       
        STR      R2,[R1, #+0]   
        B.N      ??HAL_RCCEx_PeriphCLKConfig_104
//  780     }
//  781     else
//  782     {
//  783       /* set overall return value */
//  784       status = ret;
??HAL_RCCEx_PeriphCLKConfig_113:
        MOVS     R6,R5          
//  785     }
//  786   }
//  787 #endif /*USART11*/
//  788 
//  789 #if defined(UART12)
//  790   /*-------------------------- UART12 clock source configuration -------------------*/
//  791   if (((pPeriphClkInit->PeriphClockSelection) & RCC_PERIPHCLK_UART12) == RCC_PERIPHCLK_UART12)
??HAL_RCCEx_PeriphCLKConfig_104:
        LDRD     R0,R1,[R4, #+0]
        LSLS     R0,R0,#+20     
        BPL.N    ??HAL_RCCEx_PeriphCLKConfig_114
//  792   {
//  793     /* Check the parameters */
//  794     assert_param(IS_RCC_UART12CLKSOURCE(pPeriphClkInit->Uart12ClockSelection));
//  795 
//  796     switch (pPeriphClkInit->Uart12ClockSelection)
        LDR      R0,[R4, #+136] 
        CMP      R0,#+0         
        BEQ.N    ??HAL_RCCEx_PeriphCLKConfig_115
        CMP      R0,#+16        
        BEQ.N    ??HAL_RCCEx_PeriphCLKConfig_116
        CMP      R0,#+32        
        BEQ.N    ??HAL_RCCEx_PeriphCLKConfig_117
        CMP      R0,#+48        
        BEQ.N    ??HAL_RCCEx_PeriphCLKConfig_118
        CMP      R0,#+64        
        BEQ.N    ??HAL_RCCEx_PeriphCLKConfig_119
        CMP      R0,#+80        
        BEQ.N    ??HAL_RCCEx_PeriphCLKConfig_120
        B.N      ??HAL_RCCEx_PeriphCLKConfig_121
//  797     {
//  798       case RCC_UART12CLKSOURCE_PCLK1:      /* PCLK1 is used as clock source for UART12*/
//  799 
//  800         /* UART12 clock source config set later after clock selection check */
//  801         break;
??HAL_RCCEx_PeriphCLKConfig_115:
        B.N      ??HAL_RCCEx_PeriphCLKConfig_122
//  802 
//  803       case RCC_UART12CLKSOURCE_PLL2Q:  /* PLL2 is used as clock source for UART12*/
//  804         /* PLL2 input clock, parameters M, N & Q configuration and clock output (PLL2ClockOut) */
//  805         ret = RCCEx_PLL2_Config(&(pPeriphClkInit->PLL2));
??HAL_RCCEx_PeriphCLKConfig_116:
        ADDS     R0,R4,#+8      
          CFI FunCall RCCEx_PLL2_Config
        BL       RCCEx_PLL2_Config
        MOVS     R5,R0          
//  806         /* UART12 clock source config set later after clock selection check */
//  807         break;
        B.N      ??HAL_RCCEx_PeriphCLKConfig_122
//  808 
//  809       case RCC_UART12CLKSOURCE_PLL3Q:  /* PLL3 is used as clock source for UART12*/
//  810         /* PLL3  input clock, parameters M, N & Q configuration clock output (PLL3ClockOut) */
//  811         ret = RCCEx_PLL3_Config(&(pPeriphClkInit->PLL3));
??HAL_RCCEx_PeriphCLKConfig_117:
        ADDS     R0,R4,#+48     
          CFI FunCall RCCEx_PLL3_Config
        BL       RCCEx_PLL3_Config
        MOVS     R5,R0          
//  812         /* UART12 clock source config set later after clock selection check */
//  813         break;
        B.N      ??HAL_RCCEx_PeriphCLKConfig_122
//  814 
//  815       case RCC_UART12CLKSOURCE_HSI:      /* HSI clock is used as source of UART12 clock*/
//  816         /* UART12 clock source config set later after clock selection check */
//  817         break;
??HAL_RCCEx_PeriphCLKConfig_118:
        B.N      ??HAL_RCCEx_PeriphCLKConfig_122
//  818 
//  819       case RCC_UART12CLKSOURCE_CSI:      /* CSI clock is used as source of UART12 clock*/
//  820         /* UART12 clock source config set later after clock selection check */
//  821         break;
??HAL_RCCEx_PeriphCLKConfig_119:
        B.N      ??HAL_RCCEx_PeriphCLKConfig_122
//  822 
//  823       case RCC_UART12CLKSOURCE_LSE:      /* LSE clock is used as source of UART12 clock*/
//  824         /* UART12 clock source config set later after clock selection check */
//  825         break;
??HAL_RCCEx_PeriphCLKConfig_120:
        B.N      ??HAL_RCCEx_PeriphCLKConfig_122
//  826 
//  827       default:
//  828         ret = HAL_ERROR;
??HAL_RCCEx_PeriphCLKConfig_121:
        MOVS     R5,#+1         
//  829         break;
//  830     }
//  831 
//  832     if (ret == HAL_OK)
??HAL_RCCEx_PeriphCLKConfig_122:
        MOVS     R0,R5          
        UXTB     R0,R0          
        CMP      R0,#+0         
        BNE.N    ??HAL_RCCEx_PeriphCLKConfig_123
//  833     {
//  834       /* Set the source of UART12 clock*/
//  835       __HAL_RCC_UART12_CONFIG(pPeriphClkInit->Uart12ClockSelection);
        LDR.W    R1,??HAL_RCCEx_PeriphCLKConfig_1
        LDR      R2,[R1, #+0]   
        BICS     R2,R2,#0x70    
        LDR      R0,[R4, #+136] 
        ORRS     R2,R0,R2       
        STR      R2,[R1, #+0]   
        B.N      ??HAL_RCCEx_PeriphCLKConfig_114
//  836     }
//  837     else
//  838     {
//  839       /* set overall return value */
//  840       status = ret;
??HAL_RCCEx_PeriphCLKConfig_123:
        MOVS     R6,R5          
//  841     }
//  842   }
//  843 #endif /* UART12 */
//  844 
//  845   /*-------------------------- LPUART1 clock source configuration ------------------*/
//  846   if (((pPeriphClkInit->PeriphClockSelection) & RCC_PERIPHCLK_LPUART1) == RCC_PERIPHCLK_LPUART1)
??HAL_RCCEx_PeriphCLKConfig_114:
        LDRD     R0,R1,[R4, #+0]
        LSLS     R0,R0,#+19     
        BPL.N    ??HAL_RCCEx_PeriphCLKConfig_124
//  847   {
//  848     /* Check the parameters */
//  849     assert_param(IS_RCC_LPUART1CLKSOURCE(pPeriphClkInit->Lpuart1ClockSelection));
//  850 
//  851     switch (pPeriphClkInit->Lpuart1ClockSelection)
        LDR      R0,[R4, #+140] 
        CMP      R0,#+0         
        BEQ.N    ??HAL_RCCEx_PeriphCLKConfig_125
        CMP      R0,#+16777216  
        BEQ.N    ??HAL_RCCEx_PeriphCLKConfig_126
        CMP      R0,#+33554432  
        BEQ.N    ??HAL_RCCEx_PeriphCLKConfig_127
        CMP      R0,#+50331648  
        BEQ.N    ??HAL_RCCEx_PeriphCLKConfig_128
        CMP      R0,#+67108864  
        BEQ.N    ??HAL_RCCEx_PeriphCLKConfig_129
        CMP      R0,#+83886080  
        BEQ.N    ??HAL_RCCEx_PeriphCLKConfig_130
        B.N      ??HAL_RCCEx_PeriphCLKConfig_131
//  852     {
//  853       case RCC_LPUART1CLKSOURCE_PCLK3:      /* PCLK3 is used as clock source for LPUART1*/
//  854 
//  855         /* LPUART1 clock source config set later after clock selection check */
//  856         break;
??HAL_RCCEx_PeriphCLKConfig_125:
        B.N      ??HAL_RCCEx_PeriphCLKConfig_132
//  857 
//  858       case RCC_LPUART1CLKSOURCE_PLL2Q:  /* PLL2 is used as clock source for LPUART1*/
//  859         /* PLL2 input clock, parameters M, N & Q configuration and clock output (PLL2ClockOut) */
//  860         ret = RCCEx_PLL2_Config(&(pPeriphClkInit->PLL2));
??HAL_RCCEx_PeriphCLKConfig_126:
        ADDS     R0,R4,#+8      
          CFI FunCall RCCEx_PLL2_Config
        BL       RCCEx_PLL2_Config
        MOVS     R5,R0          
//  861         /* LPUART1 clock source config set later after clock selection check */
//  862         break;
        B.N      ??HAL_RCCEx_PeriphCLKConfig_132
//  863 
//  864 #if defined(RCC_LPUART1CLKSOURCE_PLL3Q)
//  865       case RCC_LPUART1CLKSOURCE_PLL3Q:  /* PLL3 is used as clock source for LPUART1*/
//  866         /* PLL3  input clock, parameters M, N & Q configuration clock output (PLL3ClockOut) */
//  867         ret = RCCEx_PLL3_Config(&(pPeriphClkInit->PLL3));
??HAL_RCCEx_PeriphCLKConfig_127:
        ADDS     R0,R4,#+48     
          CFI FunCall RCCEx_PLL3_Config
        BL       RCCEx_PLL3_Config
        MOVS     R5,R0          
//  868         /* LPUART1 clock source config set later after clock selection check */
//  869         break;
        B.N      ??HAL_RCCEx_PeriphCLKConfig_132
//  870 #endif /* RCC_LPUART1CLKSOURCE_PLL3Q */
//  871 
//  872       case RCC_LPUART1CLKSOURCE_HSI:      /* HSI clock is used as source of LPUART1 clock*/
//  873         /* LPUART1 clock source config set later after clock selection check */
//  874         break;
??HAL_RCCEx_PeriphCLKConfig_128:
        B.N      ??HAL_RCCEx_PeriphCLKConfig_132
//  875 
//  876       case RCC_LPUART1CLKSOURCE_CSI:      /* CSI clock is used as source of LPUART1 clock*/
//  877         /* LPUART1 clock source config set later after clock selection check */
//  878         break;
??HAL_RCCEx_PeriphCLKConfig_129:
        B.N      ??HAL_RCCEx_PeriphCLKConfig_132
//  879 
//  880       case RCC_LPUART1CLKSOURCE_LSE:      /* LSE clock is used as source of LPUART1 clock*/
//  881         /* LPUART1 clock source config set later after clock selection check */
//  882         break;
??HAL_RCCEx_PeriphCLKConfig_130:
        B.N      ??HAL_RCCEx_PeriphCLKConfig_132
//  883 
//  884       default:
//  885         ret = HAL_ERROR;
??HAL_RCCEx_PeriphCLKConfig_131:
        MOVS     R5,#+1         
//  886         break;
//  887     }
//  888 
//  889     if (ret == HAL_OK)
??HAL_RCCEx_PeriphCLKConfig_132:
        MOVS     R0,R5          
        UXTB     R0,R0          
        CMP      R0,#+0         
        BNE.N    ??HAL_RCCEx_PeriphCLKConfig_133
//  890     {
//  891       /* Set the source of LPUART1 clock*/
//  892       __HAL_RCC_LPUART1_CONFIG(pPeriphClkInit->Lpuart1ClockSelection);
        LDR.W    R1,??HAL_RCCEx_PeriphCLKConfig_2
        LDR      R2,[R1, #+0]   
        BICS     R2,R2,#0x7000000
        LDR      R0,[R4, #+140] 
        ORRS     R2,R0,R2       
        STR      R2,[R1, #+0]   
        B.N      ??HAL_RCCEx_PeriphCLKConfig_124
//  893     }
//  894     else
//  895     {
//  896       /* set overall return value */
//  897       status = ret;
??HAL_RCCEx_PeriphCLKConfig_133:
        MOVS     R6,R5          
//  898     }
//  899   }
//  900 
//  901   /*-------------------------- I2C1 clock source configuration ---------------------*/
//  902   if (((pPeriphClkInit->PeriphClockSelection) & RCC_PERIPHCLK_I2C1) == RCC_PERIPHCLK_I2C1)
??HAL_RCCEx_PeriphCLKConfig_124:
        LDRD     R0,R1,[R4, #+0]
        LSLS     R0,R0,#+18     
        BPL.N    ??HAL_RCCEx_PeriphCLKConfig_134
//  903   {
//  904     /* Check the parameters */
//  905     assert_param(IS_RCC_I2C1CLKSOURCE(pPeriphClkInit->I2c1ClockSelection));
//  906 
//  907     switch (pPeriphClkInit->I2c1ClockSelection)
        LDR      R0,[R4, #+144] 
        CMP      R0,#+0         
        BEQ.N    ??HAL_RCCEx_PeriphCLKConfig_135
        CMP      R0,#+65536     
        BEQ.N    ??HAL_RCCEx_PeriphCLKConfig_136
        CMP      R0,#+131072    
        BEQ.N    ??HAL_RCCEx_PeriphCLKConfig_137
        CMP      R0,#+196608    
        BEQ.N    ??HAL_RCCEx_PeriphCLKConfig_138
        B.N      ??HAL_RCCEx_PeriphCLKConfig_139
//  908     {
//  909       case RCC_I2C1CLKSOURCE_PCLK1:      /* PCLK1 is used as clock source for I2C1*/
//  910 
//  911         /* I2C1 clock source config set later after clock selection check */
//  912         break;
??HAL_RCCEx_PeriphCLKConfig_135:
        B.N      ??HAL_RCCEx_PeriphCLKConfig_140
//  913 
//  914 #if defined(RCC_I2C1CLKSOURCE_PLL3R)
//  915       case RCC_I2C1CLKSOURCE_PLL3R:  /* PLL3 is used as clock source for I2C1*/
//  916         /* PLL3  input clock, parameters M, N & R configuration clock output (PLL3ClockOut) */
//  917         ret = RCCEx_PLL3_Config(&(pPeriphClkInit->PLL3));
??HAL_RCCEx_PeriphCLKConfig_136:
        ADDS     R0,R4,#+48     
          CFI FunCall RCCEx_PLL3_Config
        BL       RCCEx_PLL3_Config
        MOVS     R5,R0          
//  918 #else
//  919       case RCC_I2C1CLKSOURCE_PLL2R:  /* PLL2 is used as clock source for I2C1*/
//  920         /* PLL2  input clock, parameters M, N & R configuration clock output (PLL2ClockOut) */
//  921         ret = RCCEx_PLL2_Config(&(pPeriphClkInit->PLL2));
//  922 #endif /* RCC_I2C1CLKSOURCE_PLL3R */
//  923         /* I2C1 clock source config set later after clock selection check */
//  924         break;
        B.N      ??HAL_RCCEx_PeriphCLKConfig_140
//  925 
//  926 
//  927       case RCC_I2C1CLKSOURCE_HSI:      /* HSI clock is used as source of I2C1 clock*/
//  928         /* I2C1 clock source config set later after clock selection check */
//  929         break;
??HAL_RCCEx_PeriphCLKConfig_137:
        B.N      ??HAL_RCCEx_PeriphCLKConfig_140
//  930 
//  931       case RCC_I2C1CLKSOURCE_CSI:      /* CSI clock is used as source of I2C1 clock*/
//  932         /* I2C1 clock source config set later after clock selection check */
//  933         break;
??HAL_RCCEx_PeriphCLKConfig_138:
        B.N      ??HAL_RCCEx_PeriphCLKConfig_140
//  934 
//  935       default:
//  936         ret = HAL_ERROR;
??HAL_RCCEx_PeriphCLKConfig_139:
        MOVS     R5,#+1         
//  937         break;
//  938     }
//  939 
//  940     if (ret == HAL_OK)
??HAL_RCCEx_PeriphCLKConfig_140:
        MOVS     R0,R5          
        UXTB     R0,R0          
        CMP      R0,#+0         
        BNE.N    ??HAL_RCCEx_PeriphCLKConfig_141
//  941     {
//  942       /* Set the source of I2C1 clock*/
//  943       __HAL_RCC_I2C1_CONFIG(pPeriphClkInit->I2c1ClockSelection);
        LDR.W    R1,??HAL_RCCEx_PeriphCLKConfig_2+0x4
        LDR      R2,[R1, #+0]   
        BICS     R2,R2,#0x30000 
        LDR      R0,[R4, #+144] 
        ORRS     R2,R0,R2       
        STR      R2,[R1, #+0]   
        B.N      ??HAL_RCCEx_PeriphCLKConfig_134
//  944     }
//  945     else
//  946     {
//  947       /* set overall return value */
//  948       status = ret;
??HAL_RCCEx_PeriphCLKConfig_141:
        MOVS     R6,R5          
//  949     }
//  950   }
//  951 
//  952   /*-------------------------- I2C2 clock source configuration ---------------------*/
//  953   if (((pPeriphClkInit->PeriphClockSelection) & RCC_PERIPHCLK_I2C2) == RCC_PERIPHCLK_I2C2)
??HAL_RCCEx_PeriphCLKConfig_134:
        LDRD     R0,R1,[R4, #+0]
        LSLS     R0,R0,#+17     
        BPL.N    ??HAL_RCCEx_PeriphCLKConfig_142
//  954   {
//  955     /* Check the parameters */
//  956     assert_param(IS_RCC_I2C2CLKSOURCE(pPeriphClkInit->I2c2ClockSelection));
//  957 
//  958     switch (pPeriphClkInit->I2c2ClockSelection)
        LDR      R0,[R4, #+148] 
        CMP      R0,#+0         
        BEQ.N    ??HAL_RCCEx_PeriphCLKConfig_143
        CMP      R0,#+262144    
        BEQ.N    ??HAL_RCCEx_PeriphCLKConfig_144
        CMP      R0,#+524288    
        BEQ.N    ??HAL_RCCEx_PeriphCLKConfig_145
        CMP      R0,#+786432    
        BEQ.N    ??HAL_RCCEx_PeriphCLKConfig_146
        B.N      ??HAL_RCCEx_PeriphCLKConfig_147
//  959     {
//  960       case RCC_I2C2CLKSOURCE_PCLK1:      /* PCLK1 is used as clock source for I2C2*/
//  961 
//  962         /* I2C2 clock source config set later after clock selection check */
//  963         break;
??HAL_RCCEx_PeriphCLKConfig_143:
        B.N      ??HAL_RCCEx_PeriphCLKConfig_148
//  964 
//  965 #if defined(RCC_I2C2CLKSOURCE_PLL3R)
//  966       case RCC_I2C2CLKSOURCE_PLL3R:  /* PLL3 is used as clock source for I2C2*/
//  967         /* PLL3  input clock, parameters M, N & R configuration clock output (PLL3ClockOut) */
//  968         ret = RCCEx_PLL3_Config(&(pPeriphClkInit->PLL3));
??HAL_RCCEx_PeriphCLKConfig_144:
        ADDS     R0,R4,#+48     
          CFI FunCall RCCEx_PLL3_Config
        BL       RCCEx_PLL3_Config
        MOVS     R5,R0          
//  969 #else
//  970       case RCC_I2C2CLKSOURCE_PLL2R:  /* PLL32 is used as clock source for I2C2*/
//  971         /* PLL2  input clock, parameters M, N & R configuration clock output (PLL2ClockOut) */
//  972         ret = RCCEx_PLL2_Config(&(pPeriphClkInit->PLL2));
//  973 #endif /* RCC_I2C2CLKSOURCE_PLL3R */
//  974         /* I2C2 clock source config set later after clock selection check */
//  975         break;
        B.N      ??HAL_RCCEx_PeriphCLKConfig_148
//  976 
//  977       case RCC_I2C2CLKSOURCE_HSI:      /* HSI clock is used as source of I2C2 clock*/
//  978         /* I2C2 clock source config set later after clock selection check */
//  979         break;
??HAL_RCCEx_PeriphCLKConfig_145:
        B.N      ??HAL_RCCEx_PeriphCLKConfig_148
//  980 
//  981       case RCC_I2C2CLKSOURCE_CSI:      /* CSI clock is used as source of I2C2 clock*/
//  982         /* I2C2 clock source config set later after clock selection check */
//  983         break;
??HAL_RCCEx_PeriphCLKConfig_146:
        B.N      ??HAL_RCCEx_PeriphCLKConfig_148
//  984 
//  985       default:
//  986         ret = HAL_ERROR;
??HAL_RCCEx_PeriphCLKConfig_147:
        MOVS     R5,#+1         
//  987         break;
//  988     }
//  989 
//  990     if (ret == HAL_OK)
??HAL_RCCEx_PeriphCLKConfig_148:
        MOVS     R0,R5          
        UXTB     R0,R0          
        CMP      R0,#+0         
        BNE.N    ??HAL_RCCEx_PeriphCLKConfig_149
//  991     {
//  992       /* Set the source of I2C2 clock*/
//  993       __HAL_RCC_I2C2_CONFIG(pPeriphClkInit->I2c2ClockSelection);
        LDR.W    R1,??HAL_RCCEx_PeriphCLKConfig_2+0x4
        LDR      R2,[R1, #+0]   
        BICS     R2,R2,#0xC0000 
        LDR      R0,[R4, #+148] 
        ORRS     R2,R0,R2       
        STR      R2,[R1, #+0]   
        B.N      ??HAL_RCCEx_PeriphCLKConfig_142
//  994     }
//  995     else
//  996     {
//  997       /* set overall return value */
//  998       status = ret;
??HAL_RCCEx_PeriphCLKConfig_149:
        MOVS     R6,R5          
//  999     }
// 1000   }
// 1001 
// 1002 #if defined(I2C3)
// 1003   /*-------------------------- I2C3 clock source configuration ---------------------*/
// 1004   if (((pPeriphClkInit->PeriphClockSelection) & RCC_PERIPHCLK_I2C3) == RCC_PERIPHCLK_I2C3)
??HAL_RCCEx_PeriphCLKConfig_142:
        LDRD     R0,R1,[R4, #+0]
        LSLS     R0,R0,#+16     
        BPL.N    ??HAL_RCCEx_PeriphCLKConfig_150
// 1005   {
// 1006     /* Check the parameters */
// 1007     assert_param(IS_RCC_I2C3CLKSOURCE(pPeriphClkInit->I2c3ClockSelection));
// 1008 
// 1009     switch (pPeriphClkInit->I2c3ClockSelection)
        LDR      R0,[R4, #+152] 
        CMP      R0,#+0         
        BEQ.N    ??HAL_RCCEx_PeriphCLKConfig_151
        CMP      R0,#+1048576   
        BEQ.N    ??HAL_RCCEx_PeriphCLKConfig_152
        CMP      R0,#+2097152   
        BEQ.N    ??HAL_RCCEx_PeriphCLKConfig_153
        CMP      R0,#+3145728   
        BEQ.N    ??HAL_RCCEx_PeriphCLKConfig_154
        B.N      ??HAL_RCCEx_PeriphCLKConfig_155
// 1010     {
// 1011       case RCC_I2C3CLKSOURCE_PCLK3:      /* PCLK3 is used as clock source for I2C3*/
// 1012 
// 1013         /* I2C3 clock source config set later after clock selection check */
// 1014         break;
??HAL_RCCEx_PeriphCLKConfig_151:
        B.N      ??HAL_RCCEx_PeriphCLKConfig_156
// 1015 
// 1016       case RCC_I2C3CLKSOURCE_PLL3R:  /* PLL3 is used as clock source for I2C3*/
// 1017         /* PLL3  input clock, parameters M, N & R configuration clock output (PLL3ClockOut) */
// 1018         ret = RCCEx_PLL3_Config(&(pPeriphClkInit->PLL3));
??HAL_RCCEx_PeriphCLKConfig_152:
        ADDS     R0,R4,#+48     
          CFI FunCall RCCEx_PLL3_Config
        BL       RCCEx_PLL3_Config
        MOVS     R5,R0          
// 1019         /* I2C3 clock source config set later after clock selection check */
// 1020         break;
        B.N      ??HAL_RCCEx_PeriphCLKConfig_156
// 1021 
// 1022       case RCC_I2C3CLKSOURCE_HSI:      /* HSI clock is used as source of I2C3 clock*/
// 1023         /* I2C3 clock source config set later after clock selection check */
// 1024         break;
??HAL_RCCEx_PeriphCLKConfig_153:
        B.N      ??HAL_RCCEx_PeriphCLKConfig_156
// 1025 
// 1026       case RCC_I2C3CLKSOURCE_CSI:      /* CSI clock is used as source of I2C3 clock*/
// 1027         /* I2C3 clock source config set later after clock selection check */
// 1028         break;
??HAL_RCCEx_PeriphCLKConfig_154:
        B.N      ??HAL_RCCEx_PeriphCLKConfig_156
// 1029 
// 1030       default:
// 1031         ret = HAL_ERROR;
??HAL_RCCEx_PeriphCLKConfig_155:
        MOVS     R5,#+1         
// 1032         break;
// 1033     }
// 1034 
// 1035     if (ret == HAL_OK)
??HAL_RCCEx_PeriphCLKConfig_156:
        MOVS     R0,R5          
        UXTB     R0,R0          
        CMP      R0,#+0         
        BNE.N    ??HAL_RCCEx_PeriphCLKConfig_157
// 1036     {
// 1037       /* Set the source of I2C3 clock*/
// 1038       __HAL_RCC_I2C3_CONFIG(pPeriphClkInit->I2c3ClockSelection);
        LDR.W    R1,??HAL_RCCEx_PeriphCLKConfig_2+0x4
        LDR      R2,[R1, #+0]   
        BICS     R2,R2,#0x300000
        LDR      R0,[R4, #+152] 
        ORRS     R2,R0,R2       
        STR      R2,[R1, #+0]   
        B.N      ??HAL_RCCEx_PeriphCLKConfig_150
// 1039     }
// 1040     else
// 1041     {
// 1042       /* set overall return value */
// 1043       status = ret;
??HAL_RCCEx_PeriphCLKConfig_157:
        MOVS     R6,R5          
// 1044     }
// 1045   }
// 1046 #endif /* I2C3 */
// 1047 
// 1048 #if defined(I2C4)
// 1049   /*-------------------------- I2C4 clock source configuration ---------------------*/
// 1050   if (((pPeriphClkInit->PeriphClockSelection) & RCC_PERIPHCLK_I2C4) == RCC_PERIPHCLK_I2C4)
??HAL_RCCEx_PeriphCLKConfig_150:
        LDRD     R0,R1,[R4, #+0]
        ANDS     R0,R0,#0x0     
        ANDS     R1,R1,#0x400   
        CMP      R1,#+0         
        BNE.N    ??HAL_RCCEx_PeriphCLKConfig_158
        CMP      R0,#+0         
        BEQ.N    ??HAL_RCCEx_PeriphCLKConfig_159
// 1051   {
// 1052     /* Check the parameters */
// 1053     assert_param(IS_RCC_I2C4CLKSOURCE(pPeriphClkInit->I2c4ClockSelection));
// 1054 
// 1055     switch (pPeriphClkInit->I2c4ClockSelection)
??HAL_RCCEx_PeriphCLKConfig_158:
        LDR      R0,[R4, #+156] 
        CMP      R0,#+0         
        BEQ.N    ??HAL_RCCEx_PeriphCLKConfig_160
        CMP      R0,#+4194304   
        BEQ.N    ??HAL_RCCEx_PeriphCLKConfig_161
        CMP      R0,#+8388608   
        BEQ.N    ??HAL_RCCEx_PeriphCLKConfig_162
        CMP      R0,#+12582912  
        BEQ.N    ??HAL_RCCEx_PeriphCLKConfig_163
        B.N      ??HAL_RCCEx_PeriphCLKConfig_164
// 1056     {
// 1057       case RCC_I2C4CLKSOURCE_PCLK3:      /* PCLK3 is used as clock source for I2C4*/
// 1058 
// 1059         /* I2C4 clock source config set later after clock selection check */
// 1060         break;
??HAL_RCCEx_PeriphCLKConfig_160:
        B.N      ??HAL_RCCEx_PeriphCLKConfig_165
// 1061 
// 1062       case RCC_I2C4CLKSOURCE_PLL3R:  /* PLL3 is used as clock source for I2C4*/
// 1063         /* PLL3  input clock, parameters M, N & R configuration clock output (PLL3ClockOut) */
// 1064         ret = RCCEx_PLL3_Config(&(pPeriphClkInit->PLL3));
??HAL_RCCEx_PeriphCLKConfig_161:
        ADDS     R0,R4,#+48     
          CFI FunCall RCCEx_PLL3_Config
        BL       RCCEx_PLL3_Config
        MOVS     R5,R0          
// 1065         /* I2C4 clock source config set later after clock selection check */
// 1066         break;
        B.N      ??HAL_RCCEx_PeriphCLKConfig_165
// 1067 
// 1068       case RCC_I2C4CLKSOURCE_HSI:      /* HSI clock is used as source of I2C4 clock*/
// 1069         /* I2C4 clock source config set later after clock selection check */
// 1070         break;
??HAL_RCCEx_PeriphCLKConfig_162:
        B.N      ??HAL_RCCEx_PeriphCLKConfig_165
// 1071 
// 1072       case RCC_I2C4CLKSOURCE_CSI:      /* CSI clock is used as source of I2C4 clock*/
// 1073         /* I2C4 clock source config set later after clock selection check */
// 1074         break;
??HAL_RCCEx_PeriphCLKConfig_163:
        B.N      ??HAL_RCCEx_PeriphCLKConfig_165
// 1075 
// 1076       default:
// 1077         ret = HAL_ERROR;
??HAL_RCCEx_PeriphCLKConfig_164:
        MOVS     R5,#+1         
// 1078         break;
// 1079     }
// 1080 
// 1081     if (ret == HAL_OK)
??HAL_RCCEx_PeriphCLKConfig_165:
        MOVS     R0,R5          
        UXTB     R0,R0          
        CMP      R0,#+0         
        BNE.N    ??HAL_RCCEx_PeriphCLKConfig_166
// 1082     {
// 1083       /* Set the source of I2C4 clock*/
// 1084       __HAL_RCC_I2C4_CONFIG(pPeriphClkInit->I2c4ClockSelection);
        LDR.W    R1,??HAL_RCCEx_PeriphCLKConfig_2+0x4
        LDR      R2,[R1, #+0]   
        BICS     R2,R2,#0xC00000
        LDR      R0,[R4, #+156] 
        ORRS     R2,R0,R2       
        STR      R2,[R1, #+0]   
        B.N      ??HAL_RCCEx_PeriphCLKConfig_159
// 1085     }
// 1086     else
// 1087     {
// 1088       /* set overall return value */
// 1089       status = ret;
??HAL_RCCEx_PeriphCLKConfig_166:
        MOVS     R6,R5          
// 1090     }
// 1091   }
// 1092 #endif /* I2C4 */
// 1093 
// 1094   /*-------------------------- I3C1 clock source configuration ---------------------*/
// 1095   if (((pPeriphClkInit->PeriphClockSelection) & RCC_PERIPHCLK_I3C1) == RCC_PERIPHCLK_I3C1)
??HAL_RCCEx_PeriphCLKConfig_159:
        LDRD     R0,R1,[R4, #+0]
        LSLS     R0,R0,#+15     
        BPL.N    ??HAL_RCCEx_PeriphCLKConfig_167
// 1096   {
// 1097     /* Check the parameters */
// 1098     assert_param(IS_RCC_I3C1CLKSOURCE(pPeriphClkInit->I3c1ClockSelection));
// 1099 
// 1100     switch (pPeriphClkInit->I3c1ClockSelection)
        LDR      R0,[R4, #+160] 
        CMP      R0,#+0         
        BEQ.N    ??HAL_RCCEx_PeriphCLKConfig_168
        CMP      R0,#+16777216  
        BEQ.N    ??HAL_RCCEx_PeriphCLKConfig_169
        CMP      R0,#+33554432  
        BEQ.N    ??HAL_RCCEx_PeriphCLKConfig_170
        B.N      ??HAL_RCCEx_PeriphCLKConfig_171
// 1101     {
// 1102       case RCC_I3C1CLKSOURCE_PCLK1:      /* PCLK1 is used as clock source for I3C1*/
// 1103 
// 1104         /* I3C1 clock source config set later after clock selection check */
// 1105         break;
??HAL_RCCEx_PeriphCLKConfig_168:
        B.N      ??HAL_RCCEx_PeriphCLKConfig_172
// 1106 
// 1107 #if defined(RCC_I3C1CLKSOURCE_PLL3R)
// 1108       case RCC_I3C1CLKSOURCE_PLL3R:  /* PLL3 is used as clock source for I3C1*/
// 1109         /* PLL3  input clock, parameters M, N & R configuration clock output (PLL3ClockOut) */
// 1110         ret = RCCEx_PLL3_Config(&(pPeriphClkInit->PLL3));
??HAL_RCCEx_PeriphCLKConfig_169:
        ADDS     R0,R4,#+48     
          CFI FunCall RCCEx_PLL3_Config
        BL       RCCEx_PLL3_Config
        MOVS     R5,R0          
// 1111 #else
// 1112       case RCC_I3C1CLKSOURCE_PLL2R:  /* PLL2 is used as clock source for I3C1*/
// 1113         /* PLL2  input clock, parameters M, N & R configuration clock output (PLL2ClockOut) */
// 1114         ret = RCCEx_PLL2_Config(&(pPeriphClkInit->PLL2));
// 1115 #endif /* RCC_I3C1CLKSOURCE_PLL3R */
// 1116         /* I3C1 clock source config set later after clock selection check */
// 1117         break;
        B.N      ??HAL_RCCEx_PeriphCLKConfig_172
// 1118 
// 1119       case RCC_I3C1CLKSOURCE_HSI:      /* HSI clock is used as source of I3C1 clock*/
// 1120         /* I3C1 clock source config set later after clock selection check */
// 1121         break;
??HAL_RCCEx_PeriphCLKConfig_170:
        B.N      ??HAL_RCCEx_PeriphCLKConfig_172
// 1122 
// 1123       default:
// 1124         ret = HAL_ERROR;
??HAL_RCCEx_PeriphCLKConfig_171:
        MOVS     R5,#+1         
// 1125         break;
// 1126     }
// 1127 
// 1128     if (ret == HAL_OK)
??HAL_RCCEx_PeriphCLKConfig_172:
        MOVS     R0,R5          
        UXTB     R0,R0          
        CMP      R0,#+0         
        BNE.N    ??HAL_RCCEx_PeriphCLKConfig_173
// 1129     {
// 1130       /* Set the source of I3C1 clock*/
// 1131       __HAL_RCC_I3C1_CONFIG(pPeriphClkInit->I3c1ClockSelection);
        LDR.W    R1,??HAL_RCCEx_PeriphCLKConfig_2+0x4
        LDR      R2,[R1, #+0]   
        BICS     R2,R2,#0x3000000
        LDR      R0,[R4, #+160] 
        ORRS     R2,R0,R2       
        STR      R2,[R1, #+0]   
        B.N      ??HAL_RCCEx_PeriphCLKConfig_167
// 1132     }
// 1133     else
// 1134     {
// 1135       /* set overall return value */
// 1136       status = ret;
??HAL_RCCEx_PeriphCLKConfig_173:
        MOVS     R6,R5          
// 1137     }
// 1138   }
// 1139 
// 1140 #if defined (I3C2)
// 1141   /*-------------------------- I3C2 clock source configuration ---------------------*/
// 1142   if (((pPeriphClkInit->PeriphClockSelection) & RCC_PERIPHCLK_I3C2) == RCC_PERIPHCLK_I3C2)
// 1143   {
// 1144     /* Check the parameters */
// 1145     assert_param(IS_RCC_I3C2CLKSOURCE(pPeriphClkInit->I3c2ClockSelection));
// 1146 
// 1147     switch (pPeriphClkInit->I3c2ClockSelection)
// 1148     {
// 1149       case RCC_I3C2CLKSOURCE_PCLK3:      /* PCLK1 is used as clock source for I3C2*/
// 1150 
// 1151         /* I3C2 clock source config set later after clock selection check */
// 1152         break;
// 1153 
// 1154       case RCC_I3C2CLKSOURCE_PLL2R:  /* PLL2 is used as clock source for I3C2*/
// 1155         /* PLL2  input clock, parameters M, N & R configuration clock output (PLL2ClockOut) */
// 1156         ret = RCCEx_PLL2_Config(&(pPeriphClkInit->PLL2));
// 1157         /* I3C2 clock source config set later after clock selection check */
// 1158         break;
// 1159 
// 1160       case RCC_I3C2CLKSOURCE_HSI:      /* HSI clock is used as source of I3C2 clock*/
// 1161         /* I3C2 clock source config set later after clock selection check */
// 1162         break;
// 1163 
// 1164       default:
// 1165         ret = HAL_ERROR;
// 1166         break;
// 1167     }
// 1168 
// 1169     if (ret == HAL_OK)
// 1170     {
// 1171       /* Set the source of I3C2 clock*/
// 1172       __HAL_RCC_I3C2_CONFIG(pPeriphClkInit->I3c2ClockSelection);
// 1173     }
// 1174     else
// 1175     {
// 1176       /* set overall return value */
// 1177       status = ret;
// 1178     }
// 1179   }
// 1180 #endif /* I3C2 */
// 1181 
// 1182   /*------------------------------------ TIM configuration --------------------------------------*/
// 1183   if (((pPeriphClkInit->PeriphClockSelection) & RCC_PERIPHCLK_TIM) == RCC_PERIPHCLK_TIM)
??HAL_RCCEx_PeriphCLKConfig_167:
        LDRD     R0,R1,[R4, #+0]
        ANDS     R0,R0,#0x0     
        ANDS     R1,R1,#0x800   
        CMP      R1,#+0         
        BNE.N    ??HAL_RCCEx_PeriphCLKConfig_174
        CMP      R0,#+0         
        BEQ.N    ??HAL_RCCEx_PeriphCLKConfig_175
// 1184   {
// 1185     /* Check the parameters */
// 1186     assert_param(IS_RCC_TIMPRES(pPeriphClkInit->TimPresSelection));
// 1187 
// 1188     /* Configure Timer Prescaler */
// 1189     __HAL_RCC_TIMCLKPRESCALER(pPeriphClkInit->TimPresSelection);
??HAL_RCCEx_PeriphCLKConfig_174:
        LDR.W    R1,??DataTable0
        LDR      R0,[R1, #+0]   
        BICS     R0,R0,#0x8000  
        STR      R0,[R1, #+0]   
        LDR      R2,[R1, #+0]   
        LDR      R0,[R4, #+256] 
        ORRS     R2,R0,R2       
        STR      R2,[R1, #+0]   
// 1190   }
// 1191 
// 1192   /*-------------------------- LPTIM1 clock source configuration ---------------------*/
// 1193   if (((pPeriphClkInit->PeriphClockSelection) & RCC_PERIPHCLK_LPTIM1) == RCC_PERIPHCLK_LPTIM1)
??HAL_RCCEx_PeriphCLKConfig_175:
        LDRD     R0,R1,[R4, #+0]
        LSLS     R0,R0,#+14     
        BPL.N    ??HAL_RCCEx_PeriphCLKConfig_176
// 1194   {
// 1195     /* Check the parameters */
// 1196     assert_param(IS_RCC_LPTIM1CLK(pPeriphClkInit->Lptim1ClockSelection));
// 1197 
// 1198     switch (pPeriphClkInit->Lptim1ClockSelection)
        LDR      R0,[R4, #+164] 
        CMP      R0,#+0         
        BEQ.N    ??HAL_RCCEx_PeriphCLKConfig_177
        CMP      R0,#+256       
        BEQ.N    ??HAL_RCCEx_PeriphCLKConfig_178
        CMP      R0,#+512       
        BEQ.N    ??HAL_RCCEx_PeriphCLKConfig_179
        CMP      R0,#+768       
        BEQ.N    ??HAL_RCCEx_PeriphCLKConfig_180
        CMP      R0,#+1024      
        BEQ.N    ??HAL_RCCEx_PeriphCLKConfig_181
        CMP      R0,#+1280      
        BEQ.N    ??HAL_RCCEx_PeriphCLKConfig_182
        B.N      ??HAL_RCCEx_PeriphCLKConfig_183
// 1199     {
// 1200       case RCC_LPTIM1CLKSOURCE_PCLK3:      /* PCLK3 is used as clock source for LPTIM1*/
// 1201 
// 1202         /* LPTIM1 clock source config set later after clock selection check */
// 1203         break;
??HAL_RCCEx_PeriphCLKConfig_177:
        B.N      ??HAL_RCCEx_PeriphCLKConfig_184
// 1204 
// 1205       case RCC_LPTIM1CLKSOURCE_PLL2P:  /* PLL2 is used as clock source for LPTIM1*/
// 1206         /* PLL2 P input clock, parameters M, N & P configuration and clock output (PLL2ClockOut) */
// 1207         ret = RCCEx_PLL2_Config(&(pPeriphClkInit->PLL2));
??HAL_RCCEx_PeriphCLKConfig_178:
        ADDS     R0,R4,#+8      
          CFI FunCall RCCEx_PLL2_Config
        BL       RCCEx_PLL2_Config
        MOVS     R5,R0          
// 1208         /* LPTIM1 clock source config set later after clock selection check */
// 1209         break;
        B.N      ??HAL_RCCEx_PeriphCLKConfig_184
// 1210 
// 1211 #if defined(RCC_LPTIM1CLKSOURCE_PLL3R)
// 1212       case RCC_LPTIM1CLKSOURCE_PLL3R:  /* PLL3 is used as clock source for LPTIM1*/
// 1213         /* PLL3 R input clock, parameters M, N & R configuration clock output (PLL3ClockOut) */
// 1214         ret = RCCEx_PLL3_Config(&(pPeriphClkInit->PLL3));
??HAL_RCCEx_PeriphCLKConfig_179:
        ADDS     R0,R4,#+48     
          CFI FunCall RCCEx_PLL3_Config
        BL       RCCEx_PLL3_Config
        MOVS     R5,R0          
// 1215         /* LPTIM1 clock source config set later after clock selection check */
// 1216         break;
        B.N      ??HAL_RCCEx_PeriphCLKConfig_184
// 1217 #endif /* RCC_LPTIM1CLKSOURCE_PLL3R */
// 1218 
// 1219       case RCC_LPTIM1CLKSOURCE_LSE:      /* LSE clock is used as source of LPTIM1 clock*/
// 1220         /* LPTIM1 clock source config set later after clock selection check */
// 1221         break;
??HAL_RCCEx_PeriphCLKConfig_180:
        B.N      ??HAL_RCCEx_PeriphCLKConfig_184
// 1222 
// 1223       case RCC_LPTIM1CLKSOURCE_LSI:      /* LSI clock is used as source of LPTIM1 clock*/
// 1224         /* LPTIM1 clock source config set later after clock selection check */
// 1225         break;
??HAL_RCCEx_PeriphCLKConfig_181:
        B.N      ??HAL_RCCEx_PeriphCLKConfig_184
// 1226 
// 1227       case RCC_LPTIM1CLKSOURCE_CLKP:      /* CLKP is used as source of LPTIM1 clock*/
// 1228         /* LPTIM1 clock source config set later after clock selection check */
// 1229         break;
??HAL_RCCEx_PeriphCLKConfig_182:
        B.N      ??HAL_RCCEx_PeriphCLKConfig_184
// 1230 
// 1231       default:
// 1232         ret = HAL_ERROR;
??HAL_RCCEx_PeriphCLKConfig_183:
        MOVS     R5,#+1         
// 1233         break;
// 1234     }
// 1235 
// 1236     if (ret == HAL_OK)
??HAL_RCCEx_PeriphCLKConfig_184:
        MOVS     R0,R5          
        UXTB     R0,R0          
        CMP      R0,#+0         
        BNE.N    ??HAL_RCCEx_PeriphCLKConfig_185
// 1237     {
// 1238       /* Set the source of LPTIM1 clock*/
// 1239       __HAL_RCC_LPTIM1_CONFIG(pPeriphClkInit->Lptim1ClockSelection);
        LDR.W    R1,??HAL_RCCEx_PeriphCLKConfig_1
        LDR      R2,[R1, #+0]   
        BICS     R2,R2,#0x700   
        LDR      R0,[R4, #+164] 
        ORRS     R2,R0,R2       
        STR      R2,[R1, #+0]   
        B.N      ??HAL_RCCEx_PeriphCLKConfig_176
// 1240     }
// 1241     else
// 1242     {
// 1243       /* set overall return value */
// 1244       status = ret;
??HAL_RCCEx_PeriphCLKConfig_185:
        MOVS     R6,R5          
// 1245     }
// 1246   }
// 1247 
// 1248   /*-------------------------- LPTIM2 clock source configuration ---------------------*/
// 1249   if (((pPeriphClkInit->PeriphClockSelection) & RCC_PERIPHCLK_LPTIM2) == RCC_PERIPHCLK_LPTIM2)
??HAL_RCCEx_PeriphCLKConfig_176:
        LDRD     R0,R1,[R4, #+0]
        LSLS     R0,R0,#+13     
        BPL.N    ??HAL_RCCEx_PeriphCLKConfig_186
// 1250   {
// 1251     /* Check the parameters */
// 1252     assert_param(IS_RCC_LPTIM2CLK(pPeriphClkInit->Lptim2ClockSelection));
// 1253 
// 1254     switch (pPeriphClkInit->Lptim2ClockSelection)
        LDR      R0,[R4, #+168] 
        CMP      R0,#+0         
        BEQ.N    ??HAL_RCCEx_PeriphCLKConfig_187
        CMP      R0,#+4096      
        BEQ.N    ??HAL_RCCEx_PeriphCLKConfig_188
        CMP      R0,#+8192      
        BEQ.N    ??HAL_RCCEx_PeriphCLKConfig_189
        CMP      R0,#+12288     
        BEQ.N    ??HAL_RCCEx_PeriphCLKConfig_190
        CMP      R0,#+16384     
        BEQ.N    ??HAL_RCCEx_PeriphCLKConfig_191
        CMP      R0,#+20480     
        BEQ.N    ??HAL_RCCEx_PeriphCLKConfig_192
        B.N      ??HAL_RCCEx_PeriphCLKConfig_193
// 1255     {
// 1256       case RCC_LPTIM2CLKSOURCE_PCLK1:      /* PCLK1 is used as clock source for LPTIM2*/
// 1257 
// 1258         /* LPTIM2 clock source config set later after clock selection check */
// 1259         break;
??HAL_RCCEx_PeriphCLKConfig_187:
        B.N      ??HAL_RCCEx_PeriphCLKConfig_194
// 1260 
// 1261       case RCC_LPTIM2CLKSOURCE_PLL2P:  /* PLL2 is used as clock source for LPTIM2*/
// 1262         /* PLL2 P input clock, parameters M, N & P configuration and clock output (PLL2ClockOut) */
// 1263         ret = RCCEx_PLL2_Config(&(pPeriphClkInit->PLL2));
??HAL_RCCEx_PeriphCLKConfig_188:
        ADDS     R0,R4,#+8      
          CFI FunCall RCCEx_PLL2_Config
        BL       RCCEx_PLL2_Config
        MOVS     R5,R0          
// 1264         /* LPTIM2 clock source config set later after clock selection check */
// 1265         break;
        B.N      ??HAL_RCCEx_PeriphCLKConfig_194
// 1266 
// 1267 #if defined(RCC_LPTIM2CLKSOURCE_PLL3R)
// 1268       case RCC_LPTIM2CLKSOURCE_PLL3R:  /* PLL3 is used as clock source for LPTIM2*/
// 1269         /* PLL3 R input clock, parameters M, N & R configuration clock output (PLL3ClockOut) */
// 1270         ret = RCCEx_PLL3_Config(&(pPeriphClkInit->PLL3));
??HAL_RCCEx_PeriphCLKConfig_189:
        ADDS     R0,R4,#+48     
          CFI FunCall RCCEx_PLL3_Config
        BL       RCCEx_PLL3_Config
        MOVS     R5,R0          
// 1271         /* LPTIM2 clock source config set later after clock selection check */
// 1272         break;
        B.N      ??HAL_RCCEx_PeriphCLKConfig_194
// 1273 #endif /* RCC_LPTIM2CLKSOURCE_PLL3R */
// 1274 
// 1275       case RCC_LPTIM2CLKSOURCE_LSE:      /* LSE clock is used as source of LPTIM2 clock*/
// 1276         /* LPTIM2 clock source config set later after clock selection check */
// 1277         break;
??HAL_RCCEx_PeriphCLKConfig_190:
        B.N      ??HAL_RCCEx_PeriphCLKConfig_194
// 1278 
// 1279       case RCC_LPTIM2CLKSOURCE_LSI:      /* LSI clock is used as source of LPTIM2 clock*/
// 1280         /* LPTIM2 clock source config set later after clock selection check */
// 1281         break;
??HAL_RCCEx_PeriphCLKConfig_191:
        B.N      ??HAL_RCCEx_PeriphCLKConfig_194
// 1282 
// 1283       case RCC_LPTIM2CLKSOURCE_CLKP:      /* CLKP is used as source of LPTIM2 clock*/
// 1284         /* LPTIM2 clock source config set later after clock selection check */
// 1285         break;
??HAL_RCCEx_PeriphCLKConfig_192:
        B.N      ??HAL_RCCEx_PeriphCLKConfig_194
// 1286 
// 1287       default:
// 1288         ret = HAL_ERROR;
??HAL_RCCEx_PeriphCLKConfig_193:
        MOVS     R5,#+1         
// 1289         break;
// 1290     }
// 1291 
// 1292     if (ret == HAL_OK)
??HAL_RCCEx_PeriphCLKConfig_194:
        MOVS     R0,R5          
        UXTB     R0,R0          
        CMP      R0,#+0         
        BNE.N    ??HAL_RCCEx_PeriphCLKConfig_195
// 1293     {
// 1294       /* Set the source of LPTIM2 clock*/
// 1295       __HAL_RCC_LPTIM2_CONFIG(pPeriphClkInit->Lptim2ClockSelection);
        LDR.W    R1,??HAL_RCCEx_PeriphCLKConfig_1
        LDR      R2,[R1, #+0]   
        BICS     R2,R2,#0x7000  
        LDR      R0,[R4, #+168] 
        ORRS     R2,R0,R2       
        STR      R2,[R1, #+0]   
        B.N      ??HAL_RCCEx_PeriphCLKConfig_186
// 1296     }
// 1297     else
// 1298     {
// 1299       /* set overall return value */
// 1300       status = ret;
??HAL_RCCEx_PeriphCLKConfig_195:
        MOVS     R6,R5          
// 1301     }
// 1302   }
// 1303 
// 1304 #if defined(LPTIM3)
// 1305   /*-------------------------- LPTIM3 clock source configuration ---------------------*/
// 1306   if (((pPeriphClkInit->PeriphClockSelection) & RCC_PERIPHCLK_LPTIM3) == RCC_PERIPHCLK_LPTIM3)
??HAL_RCCEx_PeriphCLKConfig_186:
        LDRD     R0,R1,[R4, #+0]
        ANDS     R0,R0,#0x0     
        ANDS     R1,R1,#0x20    
        CMP      R1,#+0         
        BNE.N    ??HAL_RCCEx_PeriphCLKConfig_196
        CMP      R0,#+0         
        BEQ.N    ??HAL_RCCEx_PeriphCLKConfig_197
// 1307   {
// 1308     /* Check the parameters */
// 1309     assert_param(IS_RCC_LPTIM3CLK(pPeriphClkInit->Lptim3ClockSelection));
// 1310 
// 1311     switch (pPeriphClkInit->Lptim3ClockSelection)
??HAL_RCCEx_PeriphCLKConfig_196:
        LDR      R0,[R4, #+172] 
        CMP      R0,#+0         
        BEQ.N    ??HAL_RCCEx_PeriphCLKConfig_198
        CMP      R0,#+65536     
        BEQ.N    ??HAL_RCCEx_PeriphCLKConfig_199
        CMP      R0,#+131072    
        BEQ.N    ??HAL_RCCEx_PeriphCLKConfig_200
        CMP      R0,#+196608    
        BEQ.N    ??HAL_RCCEx_PeriphCLKConfig_201
        CMP      R0,#+262144    
        BEQ.N    ??HAL_RCCEx_PeriphCLKConfig_202
        CMP      R0,#+327680    
        BEQ.N    ??HAL_RCCEx_PeriphCLKConfig_203
        B.N      ??HAL_RCCEx_PeriphCLKConfig_204
// 1312     {
// 1313       case RCC_LPTIM3CLKSOURCE_PCLK3:  /* PCLK3 is used as clock source for LPTIM3*/
// 1314 
// 1315         /* LPTIM3 clock source config set later after clock selection check */
// 1316         break;
??HAL_RCCEx_PeriphCLKConfig_198:
        B.N      ??HAL_RCCEx_PeriphCLKConfig_205
// 1317 
// 1318       case RCC_LPTIM3CLKSOURCE_PLL2P:  /* PLL2 is used as clock source for LPTIM3*/
// 1319         /* PLL2 P input clock, parameters M, N & P configuration and clock output (PLL2ClockOut) */
// 1320         ret = RCCEx_PLL2_Config(&(pPeriphClkInit->PLL2));
??HAL_RCCEx_PeriphCLKConfig_199:
        ADDS     R0,R4,#+8      
          CFI FunCall RCCEx_PLL2_Config
        BL       RCCEx_PLL2_Config
        MOVS     R5,R0          
// 1321         /* LPTIM3 clock source config set later after clock selection check */
// 1322         break;
        B.N      ??HAL_RCCEx_PeriphCLKConfig_205
// 1323 
// 1324       case RCC_LPTIM3CLKSOURCE_PLL3R:  /* PLL3 is used as clock source for LPTIM3*/
// 1325         /* PLL3 R input clock, parameters M, N & R configuration clock output (PLL3ClockOut) */
// 1326         ret = RCCEx_PLL3_Config(&(pPeriphClkInit->PLL3));
??HAL_RCCEx_PeriphCLKConfig_200:
        ADDS     R0,R4,#+48     
          CFI FunCall RCCEx_PLL3_Config
        BL       RCCEx_PLL3_Config
        MOVS     R5,R0          
// 1327         /* LPTIM3 clock source config set later after clock selection check */
// 1328         break;
        B.N      ??HAL_RCCEx_PeriphCLKConfig_205
// 1329 
// 1330       case RCC_LPTIM3CLKSOURCE_LSE:      /* LSE clock is used as source of LPTIM3 clock*/
// 1331         /* LPTIM3 clock source config set later after clock selection check */
// 1332         break;
??HAL_RCCEx_PeriphCLKConfig_201:
        B.N      ??HAL_RCCEx_PeriphCLKConfig_205
// 1333 
// 1334       case RCC_LPTIM3CLKSOURCE_LSI:      /* LSI clock is used as source of LPTIM3 clock*/
// 1335         /* LPTIM3 clock source config set later after clock selection check */
// 1336         break;
??HAL_RCCEx_PeriphCLKConfig_202:
        B.N      ??HAL_RCCEx_PeriphCLKConfig_205
// 1337 
// 1338       case RCC_LPTIM3CLKSOURCE_CLKP:      /* CLKP is used as source of LPTIM3 clock*/
// 1339         /* LPTIM3 clock source config set later after clock selection check */
// 1340         break;
??HAL_RCCEx_PeriphCLKConfig_203:
        B.N      ??HAL_RCCEx_PeriphCLKConfig_205
// 1341 
// 1342       default:
// 1343         ret = HAL_ERROR;
??HAL_RCCEx_PeriphCLKConfig_204:
        MOVS     R5,#+1         
// 1344         break;
// 1345     }
// 1346 
// 1347     if (ret == HAL_OK)
??HAL_RCCEx_PeriphCLKConfig_205:
        MOVS     R0,R5          
        UXTB     R0,R0          
        CMP      R0,#+0         
        BNE.N    ??HAL_RCCEx_PeriphCLKConfig_206
// 1348     {
// 1349       /* Set the source of LPTIM3 clock*/
// 1350       __HAL_RCC_LPTIM3_CONFIG(pPeriphClkInit->Lptim3ClockSelection);
        LDR.W    R1,??HAL_RCCEx_PeriphCLKConfig_1
        LDR      R2,[R1, #+0]   
        BICS     R2,R2,#0x70000 
        LDR      R0,[R4, #+172] 
        ORRS     R2,R0,R2       
        STR      R2,[R1, #+0]   
        B.N      ??HAL_RCCEx_PeriphCLKConfig_197
// 1351     }
// 1352     else
// 1353     {
// 1354       /* set overall return value */
// 1355       status = ret;
??HAL_RCCEx_PeriphCLKConfig_206:
        MOVS     R6,R5          
// 1356     }
// 1357   }
// 1358 #endif /* LPTIM3 */
// 1359 
// 1360 #if defined(LPTIM4)
// 1361   /*-------------------------- LPTIM4 clock source configuration ---------------------*/
// 1362   if (((pPeriphClkInit->PeriphClockSelection) & RCC_PERIPHCLK_LPTIM4) == RCC_PERIPHCLK_LPTIM4)
??HAL_RCCEx_PeriphCLKConfig_197:
        LDRD     R0,R1,[R4, #+0]
        ANDS     R0,R0,#0x0     
        ANDS     R1,R1,#0x40    
        CMP      R1,#+0         
        BNE.N    ??HAL_RCCEx_PeriphCLKConfig_207
        CMP      R0,#+0         
        BEQ.N    ??HAL_RCCEx_PeriphCLKConfig_208
// 1363   {
// 1364     /* Check the parameters */
// 1365     assert_param(IS_RCC_LPTIM4CLK(pPeriphClkInit->Lptim4ClockSelection));
// 1366 
// 1367     switch (pPeriphClkInit->Lptim4ClockSelection)
??HAL_RCCEx_PeriphCLKConfig_207:
        LDR      R0,[R4, #+176] 
        CMP      R0,#+0         
        BEQ.N    ??HAL_RCCEx_PeriphCLKConfig_209
        CMP      R0,#+1048576   
        BEQ.N    ??HAL_RCCEx_PeriphCLKConfig_210
        CMP      R0,#+2097152   
        BEQ.N    ??HAL_RCCEx_PeriphCLKConfig_211
        CMP      R0,#+3145728   
        BEQ.N    ??HAL_RCCEx_PeriphCLKConfig_212
        CMP      R0,#+4194304   
        BEQ.N    ??HAL_RCCEx_PeriphCLKConfig_213
        CMP      R0,#+5242880   
        BEQ.N    ??HAL_RCCEx_PeriphCLKConfig_214
        B.N      ??HAL_RCCEx_PeriphCLKConfig_215
// 1368     {
// 1369       case RCC_LPTIM4CLKSOURCE_PCLK3:      /* PCLK3 is used as clock source for LPTIM4*/
// 1370 
// 1371         /* LPTIM4 clock source config set later after clock selection check */
// 1372         break;
??HAL_RCCEx_PeriphCLKConfig_209:
        B.N      ??HAL_RCCEx_PeriphCLKConfig_216
// 1373 
// 1374       case RCC_LPTIM4CLKSOURCE_PLL2P:  /* PLL2 is used as clock source for LPTIM4*/
// 1375         /* PLL2 P input clock, parameters M, N & P configuration and clock output (PLL2ClockOut) */
// 1376         ret = RCCEx_PLL2_Config(&(pPeriphClkInit->PLL2));
??HAL_RCCEx_PeriphCLKConfig_210:
        ADDS     R0,R4,#+8      
          CFI FunCall RCCEx_PLL2_Config
        BL       RCCEx_PLL2_Config
        MOVS     R5,R0          
// 1377         /* LPTIM4 clock source config set later after clock selection check */
// 1378         break;
        B.N      ??HAL_RCCEx_PeriphCLKConfig_216
// 1379 
// 1380       case RCC_LPTIM4CLKSOURCE_PLL3R:  /* PLL3 is used as clock source for LPTIM4*/
// 1381         /* PLL3 R input clock, parameters M, N & R configuration clock output (PLL3ClockOut) */
// 1382         ret = RCCEx_PLL3_Config(&(pPeriphClkInit->PLL3));
??HAL_RCCEx_PeriphCLKConfig_211:
        ADDS     R0,R4,#+48     
          CFI FunCall RCCEx_PLL3_Config
        BL       RCCEx_PLL3_Config
        MOVS     R5,R0          
// 1383         /* LPTIM4 clock source config set later after clock selection check */
// 1384         break;
        B.N      ??HAL_RCCEx_PeriphCLKConfig_216
// 1385 
// 1386       case RCC_LPTIM4CLKSOURCE_LSE:      /* LSE clock is used as source of LPTIM4 clock*/
// 1387         /* LPTIM4 clock source config set later after clock selection check */
// 1388         break;
??HAL_RCCEx_PeriphCLKConfig_212:
        B.N      ??HAL_RCCEx_PeriphCLKConfig_216
// 1389 
// 1390       case RCC_LPTIM4CLKSOURCE_LSI:      /* LSI clock is used as source of LPTIM4 clock*/
// 1391         /* LPTIM4 clock source config set later after clock selection check */
// 1392         break;
??HAL_RCCEx_PeriphCLKConfig_213:
        B.N      ??HAL_RCCEx_PeriphCLKConfig_216
// 1393 
// 1394       case RCC_LPTIM4CLKSOURCE_CLKP:      /* CLKP is used as source of LPTIM4 clock*/
// 1395         /* LPTIM4 clock source config set later after clock selection check */
// 1396         break;
??HAL_RCCEx_PeriphCLKConfig_214:
        B.N      ??HAL_RCCEx_PeriphCLKConfig_216
// 1397 
// 1398       default:
// 1399         ret = HAL_ERROR;
??HAL_RCCEx_PeriphCLKConfig_215:
        MOVS     R5,#+1         
// 1400         break;
// 1401     }
// 1402 
// 1403     if (ret == HAL_OK)
??HAL_RCCEx_PeriphCLKConfig_216:
        MOVS     R0,R5          
        UXTB     R0,R0          
        CMP      R0,#+0         
        BNE.N    ??HAL_RCCEx_PeriphCLKConfig_217
// 1404     {
// 1405       /* Set the source of LPTIM4 clock*/
// 1406       __HAL_RCC_LPTIM4_CONFIG(pPeriphClkInit->Lptim4ClockSelection);
        LDR.W    R1,??HAL_RCCEx_PeriphCLKConfig_1
        LDR      R2,[R1, #+0]   
        BICS     R2,R2,#0x700000
        LDR      R0,[R4, #+176] 
        ORRS     R2,R0,R2       
        STR      R2,[R1, #+0]   
        B.N      ??HAL_RCCEx_PeriphCLKConfig_208
// 1407     }
// 1408     else
// 1409     {
// 1410       /* set overall return value */
// 1411       status = ret;
??HAL_RCCEx_PeriphCLKConfig_217:
        MOVS     R6,R5          
// 1412     }
// 1413   }
// 1414 #endif /* LPTIM4 */
// 1415 
// 1416 #if defined(LPTIM5)
// 1417   /*-------------------------- LPTIM5 clock source configuration ---------------------*/
// 1418   if (((pPeriphClkInit->PeriphClockSelection) & RCC_PERIPHCLK_LPTIM5) == RCC_PERIPHCLK_LPTIM5)
??HAL_RCCEx_PeriphCLKConfig_208:
        LDRD     R0,R1,[R4, #+0]
        ANDS     R0,R0,#0x0     
        ANDS     R1,R1,#0x80    
        CMP      R1,#+0         
        BNE.N    ??HAL_RCCEx_PeriphCLKConfig_218
        CMP      R0,#+0         
        BEQ.N    ??HAL_RCCEx_PeriphCLKConfig_219
// 1419   {
// 1420     /* Check the parameters */
// 1421     assert_param(IS_RCC_LPTIM5CLK(pPeriphClkInit->Lptim5ClockSelection));
// 1422 
// 1423     switch (pPeriphClkInit->Lptim5ClockSelection)
??HAL_RCCEx_PeriphCLKConfig_218:
        LDR      R0,[R4, #+180] 
        CMP      R0,#+0         
        BEQ.N    ??HAL_RCCEx_PeriphCLKConfig_220
        CMP      R0,#+16777216  
        BEQ.N    ??HAL_RCCEx_PeriphCLKConfig_221
        CMP      R0,#+33554432  
        BEQ.N    ??HAL_RCCEx_PeriphCLKConfig_222
        CMP      R0,#+50331648  
        BEQ.N    ??HAL_RCCEx_PeriphCLKConfig_223
        CMP      R0,#+67108864  
        BEQ.N    ??HAL_RCCEx_PeriphCLKConfig_224
        CMP      R0,#+83886080  
        BEQ.N    ??HAL_RCCEx_PeriphCLKConfig_225
        B.N      ??HAL_RCCEx_PeriphCLKConfig_226
// 1424     {
// 1425       case RCC_LPTIM5CLKSOURCE_PCLK3:      /* PCLK3 is used as clock source for LPTIM5*/
// 1426 
// 1427         /* LPTIM5 clock source config set later after clock selection check */
// 1428         break;
??HAL_RCCEx_PeriphCLKConfig_220:
        B.N      ??HAL_RCCEx_PeriphCLKConfig_227
// 1429 
// 1430       case RCC_LPTIM5CLKSOURCE_PLL2P:  /* PLL2 is used as clock source for LPTIM5*/
// 1431         /* PLL2 P input clock, parameters M, N & P configuration and clock output (PLL2ClockOut) */
// 1432         ret = RCCEx_PLL2_Config(&(pPeriphClkInit->PLL2));
??HAL_RCCEx_PeriphCLKConfig_221:
        ADDS     R0,R4,#+8      
          CFI FunCall RCCEx_PLL2_Config
        BL       RCCEx_PLL2_Config
        MOVS     R5,R0          
// 1433         /* LPTIM5 clock source config set later after clock selection check */
// 1434         break;
        B.N      ??HAL_RCCEx_PeriphCLKConfig_227
// 1435 
// 1436       case RCC_LPTIM5CLKSOURCE_PLL3R:  /* PLL3 is used as clock source for LPTIM5*/
// 1437         /* PLL3 R input clock, parameters M, N & R configuration clock output (PLL3ClockOut) */
// 1438         ret = RCCEx_PLL3_Config(&(pPeriphClkInit->PLL3));
??HAL_RCCEx_PeriphCLKConfig_222:
        ADDS     R0,R4,#+48     
          CFI FunCall RCCEx_PLL3_Config
        BL       RCCEx_PLL3_Config
        MOVS     R5,R0          
// 1439         /* LPTIM5 clock source config set later after clock selection check */
// 1440         break;
        B.N      ??HAL_RCCEx_PeriphCLKConfig_227
// 1441 
// 1442       case RCC_LPTIM5CLKSOURCE_LSE:      /* LSE clock is used as source of LPTIM5 clock*/
// 1443         /* LPTIM5 clock source config set later after clock selection check */
// 1444         break;
??HAL_RCCEx_PeriphCLKConfig_223:
        B.N      ??HAL_RCCEx_PeriphCLKConfig_227
// 1445 
// 1446       case RCC_LPTIM5CLKSOURCE_LSI:      /* LSI clock is used as source of LPTIM5 clock*/
// 1447         /* LPTIM5 clock source config set later after clock selection check */
// 1448         break;
??HAL_RCCEx_PeriphCLKConfig_224:
        B.N      ??HAL_RCCEx_PeriphCLKConfig_227
// 1449 
// 1450       case RCC_LPTIM5CLKSOURCE_CLKP:      /* CLKP is used as source of LPTIM5 clock*/
// 1451         /* LPTIM5 clock source config set later after clock selection check */
// 1452         break;
??HAL_RCCEx_PeriphCLKConfig_225:
        B.N      ??HAL_RCCEx_PeriphCLKConfig_227
// 1453 
// 1454       default:
// 1455         ret = HAL_ERROR;
??HAL_RCCEx_PeriphCLKConfig_226:
        MOVS     R5,#+1         
// 1456         break;
// 1457     }
// 1458 
// 1459     if (ret == HAL_OK)
??HAL_RCCEx_PeriphCLKConfig_227:
        MOVS     R0,R5          
        UXTB     R0,R0          
        CMP      R0,#+0         
        BNE.N    ??HAL_RCCEx_PeriphCLKConfig_228
// 1460     {
// 1461       /* Set the source of LPTIM5 clock*/
// 1462       __HAL_RCC_LPTIM5_CONFIG(pPeriphClkInit->Lptim5ClockSelection);
        LDR.W    R1,??HAL_RCCEx_PeriphCLKConfig_1
        LDR      R2,[R1, #+0]   
        BICS     R2,R2,#0x7000000
        LDR      R0,[R4, #+180] 
        ORRS     R2,R0,R2       
        STR      R2,[R1, #+0]   
        B.N      ??HAL_RCCEx_PeriphCLKConfig_219
// 1463     }
// 1464     else
// 1465     {
// 1466       /* set overall return value */
// 1467       status = ret;
??HAL_RCCEx_PeriphCLKConfig_228:
        MOVS     R6,R5          
// 1468     }
// 1469   }
// 1470 #endif /* LPTIM5 */
// 1471 
// 1472 #if defined(LPTIM6)
// 1473   /*-------------------------- LPTIM6 clock source configuration ---------------------*/
// 1474   if (((pPeriphClkInit->PeriphClockSelection) & RCC_PERIPHCLK_LPTIM6) == RCC_PERIPHCLK_LPTIM6)
??HAL_RCCEx_PeriphCLKConfig_219:
        LDRD     R0,R1,[R4, #+0]
        ANDS     R0,R0,#0x0     
        ANDS     R1,R1,#0x100   
        CMP      R1,#+0         
        BNE.N    ??HAL_RCCEx_PeriphCLKConfig_229
        CMP      R0,#+0         
        BEQ.N    ??HAL_RCCEx_PeriphCLKConfig_230
// 1475   {
// 1476     /* Check the parameters */
// 1477     assert_param(IS_RCC_LPTIM6CLK(pPeriphClkInit->Lptim6ClockSelection));
// 1478 
// 1479     switch (pPeriphClkInit->Lptim6ClockSelection)
??HAL_RCCEx_PeriphCLKConfig_229:
        LDR      R0,[R4, #+184] 
        CMP      R0,#+0         
        BEQ.N    ??HAL_RCCEx_PeriphCLKConfig_231
        CMP      R0,#+268435456 
        BEQ.N    ??HAL_RCCEx_PeriphCLKConfig_232
        CMP      R0,#+536870912 
        BEQ.N    ??HAL_RCCEx_PeriphCLKConfig_233
        CMP      R0,#+805306368 
        BEQ.N    ??HAL_RCCEx_PeriphCLKConfig_234
        CMP      R0,#+1073741824
        BEQ.N    ??HAL_RCCEx_PeriphCLKConfig_235
        CMP      R0,#+1342177280
        BEQ.N    ??HAL_RCCEx_PeriphCLKConfig_236
        B.N      ??HAL_RCCEx_PeriphCLKConfig_237
// 1480     {
// 1481       case RCC_LPTIM6CLKSOURCE_PCLK3:      /* PCLK3 is used as clock source for LPTIM6*/
// 1482 
// 1483         /* LPTIM6 clock source config set later after clock selection check */
// 1484         break;
??HAL_RCCEx_PeriphCLKConfig_231:
        B.N      ??HAL_RCCEx_PeriphCLKConfig_238
// 1485 
// 1486       case RCC_LPTIM6CLKSOURCE_PLL2P:  /* PLL2 is used as clock source for LPTIM6*/
// 1487         /* PLL2 P input clock, parameters M, N & P configuration and clock output (PLL2ClockOut) */
// 1488         ret = RCCEx_PLL2_Config(&(pPeriphClkInit->PLL2));
??HAL_RCCEx_PeriphCLKConfig_232:
        ADDS     R0,R4,#+8      
          CFI FunCall RCCEx_PLL2_Config
        BL       RCCEx_PLL2_Config
        MOVS     R5,R0          
// 1489         /* LPTIM6 clock source config set later after clock selection check */
// 1490         break;
        B.N      ??HAL_RCCEx_PeriphCLKConfig_238
// 1491 
// 1492       case RCC_LPTIM6CLKSOURCE_PLL3R:  /* PLL3 is used as clock source for LPTIM6*/
// 1493         /* PLL3 R input clock, parameters M, N & R configuration clock output (PLL3ClockOut) */
// 1494         ret = RCCEx_PLL3_Config(&(pPeriphClkInit->PLL3));
??HAL_RCCEx_PeriphCLKConfig_233:
        ADDS     R0,R4,#+48     
          CFI FunCall RCCEx_PLL3_Config
        BL       RCCEx_PLL3_Config
        MOVS     R5,R0          
// 1495         /* LPTIM6 clock source config set later after clock selection check */
// 1496         break;
        B.N      ??HAL_RCCEx_PeriphCLKConfig_238
// 1497 
// 1498       case RCC_LPTIM6CLKSOURCE_LSE:      /* LSE clock is used as source of LPTIM6 clock*/
// 1499         /* LPTIM6 clock source config set later after clock selection check */
// 1500         break;
??HAL_RCCEx_PeriphCLKConfig_234:
        B.N      ??HAL_RCCEx_PeriphCLKConfig_238
// 1501 
// 1502       case RCC_LPTIM6CLKSOURCE_LSI:      /* LSI clock is used as source of LPTIM6 clock*/
// 1503         /* LPTIM6 clock source config set later after clock selection check */
// 1504         break;
??HAL_RCCEx_PeriphCLKConfig_235:
        B.N      ??HAL_RCCEx_PeriphCLKConfig_238
// 1505 
// 1506       case RCC_LPTIM6CLKSOURCE_CLKP:      /* CLKP is used as source of LPTIM6 clock*/
// 1507         /* LPTIM6 clock source config set later after clock selection check */
// 1508         break;
??HAL_RCCEx_PeriphCLKConfig_236:
        B.N      ??HAL_RCCEx_PeriphCLKConfig_238
// 1509 
// 1510       default:
// 1511         ret = HAL_ERROR;
??HAL_RCCEx_PeriphCLKConfig_237:
        MOVS     R5,#+1         
// 1512         break;
// 1513     }
// 1514 
// 1515     if (ret == HAL_OK)
??HAL_RCCEx_PeriphCLKConfig_238:
        MOVS     R0,R5          
        UXTB     R0,R0          
        CMP      R0,#+0         
        BNE.N    ??HAL_RCCEx_PeriphCLKConfig_239
// 1516     {
// 1517       /* Set the source of LPTIM6 clock*/
// 1518       __HAL_RCC_LPTIM6_CONFIG(pPeriphClkInit->Lptim6ClockSelection);
        LDR.N    R1,??HAL_RCCEx_PeriphCLKConfig_1
        LDR      R2,[R1, #+0]   
        BICS     R2,R2,#0x70000000
        LDR      R0,[R4, #+184] 
        ORRS     R2,R0,R2       
        STR      R2,[R1, #+0]   
        B.N      ??HAL_RCCEx_PeriphCLKConfig_230
// 1519     }
// 1520     else
// 1521     {
// 1522       /* set overall return value */
// 1523       status = ret;
??HAL_RCCEx_PeriphCLKConfig_239:
        MOVS     R6,R5          
// 1524     }
// 1525   }
// 1526 #endif /* LPTIM6 */
// 1527 
// 1528 #if defined(SAI1)
// 1529   /*-------------------------- SAI1 clock source configuration ---------------------*/
// 1530   if (((pPeriphClkInit->PeriphClockSelection) & RCC_PERIPHCLK_SAI1) == RCC_PERIPHCLK_SAI1)
??HAL_RCCEx_PeriphCLKConfig_230:
        LDRD     R0,R1,[R4, #+0]
        LSLS     R0,R0,#+12     
        BPL.N    ??HAL_RCCEx_PeriphCLKConfig_240
// 1531   {
// 1532     /* Check the parameters */
// 1533     assert_param(IS_RCC_SAI1CLK(pPeriphClkInit->Sai1ClockSelection));
// 1534 
// 1535     switch (pPeriphClkInit->Sai1ClockSelection)
        LDR      R0,[R4, #+192] 
        CMP      R0,#+0         
        BEQ.N    ??HAL_RCCEx_PeriphCLKConfig_241
        CMP      R0,#+65536     
        BEQ.N    ??HAL_RCCEx_PeriphCLKConfig_242
        CMP      R0,#+131072    
        BEQ.N    ??HAL_RCCEx_PeriphCLKConfig_243
        CMP      R0,#+196608    
        BEQ.N    ??HAL_RCCEx_PeriphCLKConfig_244
        CMP      R0,#+262144    
        BEQ.N    ??HAL_RCCEx_PeriphCLKConfig_245
        B.N      ??HAL_RCCEx_PeriphCLKConfig_246
// 1536     {
// 1537       case RCC_SAI1CLKSOURCE_PLL1Q:      /* PLL is used as clock source for SAI1*/
// 1538         /* Enable SAI Clock output generated from System PLL . */
// 1539         __HAL_RCC_PLL1_CLKOUT_ENABLE(RCC_PLL1_DIVQ);
??HAL_RCCEx_PeriphCLKConfig_241:
        LDR.W    R0,??DataTable1
        LDR      R1,[R0, #+0]   
        ORRS     R1,R1,#0x20000 
        STR      R1,[R0, #+0]   
// 1540         /* SAI1 clock source config set later after clock selection check */
// 1541         break;
        B.N      ??HAL_RCCEx_PeriphCLKConfig_247
// 1542 
// 1543       case RCC_SAI1CLKSOURCE_PLL2P:  /* PLL2 is used as clock source for SAI1*/
// 1544         /* PLL2 P input clock, parameters M, N & P configuration and clock output (PLL2ClockOut) */
// 1545         ret = RCCEx_PLL2_Config(&(pPeriphClkInit->PLL2));
??HAL_RCCEx_PeriphCLKConfig_242:
        ADDS     R0,R4,#+8      
          CFI FunCall RCCEx_PLL2_Config
        BL       RCCEx_PLL2_Config
        MOVS     R5,R0          
// 1546         /* SAI1 clock source config set later after clock selection check */
// 1547         break;
        B.N      ??HAL_RCCEx_PeriphCLKConfig_247
// 1548 
// 1549       case RCC_SAI1CLKSOURCE_PLL3P:  /* PLL3 is used as clock source for SAI1*/
// 1550         /* PLL3 P input clock, parameters M, N & P configuration clock output (PLL3ClockOut) */
// 1551         ret = RCCEx_PLL3_Config(&(pPeriphClkInit->PLL3));
??HAL_RCCEx_PeriphCLKConfig_243:
        ADDS     R0,R4,#+48     
          CFI FunCall RCCEx_PLL3_Config
        BL       RCCEx_PLL3_Config
        MOVS     R5,R0          
// 1552         /* SAI1 clock source config set later after clock selection check */
// 1553         break;
        B.N      ??HAL_RCCEx_PeriphCLKConfig_247
// 1554 
// 1555       case RCC_SAI1CLKSOURCE_PIN:      /* External clock is used as source of SAI1 clock*/
// 1556         break;
??HAL_RCCEx_PeriphCLKConfig_244:
        B.N      ??HAL_RCCEx_PeriphCLKConfig_247
// 1557 
// 1558       case RCC_SAI1CLKSOURCE_CLKP:      /* CLKP is used as source of SAI1 clock*/
// 1559         /* SAI1 clock source config set later after clock selection check */
// 1560         break;
??HAL_RCCEx_PeriphCLKConfig_245:
        B.N      ??HAL_RCCEx_PeriphCLKConfig_247
// 1561 
// 1562       default:
// 1563         ret = HAL_ERROR;
??HAL_RCCEx_PeriphCLKConfig_246:
        MOVS     R5,#+1         
// 1564         break;
// 1565     }
// 1566 
// 1567     if (ret == HAL_OK)
??HAL_RCCEx_PeriphCLKConfig_247:
        MOVS     R0,R5          
        UXTB     R0,R0          
        CMP      R0,#+0         
        BNE.N    ??HAL_RCCEx_PeriphCLKConfig_248
// 1568     {
// 1569       /* Set the source of SAI1 clock*/
// 1570       __HAL_RCC_SAI1_CONFIG(pPeriphClkInit->Sai1ClockSelection);
        LDR.N    R1,??HAL_RCCEx_PeriphCLKConfig_0
        LDR      R2,[R1, #+0]   
        BICS     R2,R2,#0x70000 
        LDR      R0,[R4, #+192] 
        ORRS     R2,R0,R2       
        STR      R2,[R1, #+0]   
        B.N      ??HAL_RCCEx_PeriphCLKConfig_240
        Nop                     
        DATA
??HAL_RCCEx_PeriphCLKConfig_0:
        DATA32
        DC32     0x44020ce8     
        DC32     0x44020cd8     
        THUMB
// 1571     }
// 1572     else
// 1573     {
// 1574       /* set overall return value */
// 1575       status = ret;
??HAL_RCCEx_PeriphCLKConfig_248:
        MOVS     R6,R5          
// 1576     }
// 1577   }
// 1578 #endif /* SAI1*/
// 1579 
// 1580 #if defined(SAI2)
// 1581   /*-------------------------- SAI2 clock source configuration ---------------------*/
// 1582   if (((pPeriphClkInit->PeriphClockSelection) & RCC_PERIPHCLK_SAI2) == RCC_PERIPHCLK_SAI2)
??HAL_RCCEx_PeriphCLKConfig_240:
        LDRD     R0,R1,[R4, #+0]
        LSLS     R0,R0,#+11     
        BPL.N    ??HAL_RCCEx_PeriphCLKConfig_249
// 1583   {
// 1584     /* Check the parameters */
// 1585     assert_param(IS_RCC_SAI2CLK(pPeriphClkInit->Sai2ClockSelection));
// 1586 
// 1587     switch (pPeriphClkInit->Sai2ClockSelection)
        LDR      R0,[R4, #+196] 
        CMP      R0,#+0         
        BEQ.N    ??HAL_RCCEx_PeriphCLKConfig_250
        CMP      R0,#+524288    
        BEQ.N    ??HAL_RCCEx_PeriphCLKConfig_251
        CMP      R0,#+1048576   
        BEQ.N    ??HAL_RCCEx_PeriphCLKConfig_252
        CMP      R0,#+1572864   
        BEQ.N    ??HAL_RCCEx_PeriphCLKConfig_253
        CMP      R0,#+2097152   
        BEQ.N    ??HAL_RCCEx_PeriphCLKConfig_253
        B.N      ??HAL_RCCEx_PeriphCLKConfig_254
// 1588     {
// 1589       case RCC_SAI2CLKSOURCE_PLL1Q:      /* PLL is used as clock source for SAI2*/
// 1590         /* Enable SAI Clock output generated from System PLL . */
// 1591         __HAL_RCC_PLL1_CLKOUT_ENABLE(RCC_PLL1_DIVQ);
??HAL_RCCEx_PeriphCLKConfig_250:
        LDR.W    R0,??DataTable1
        LDR      R1,[R0, #+0]   
        ORRS     R1,R1,#0x20000 
        STR      R1,[R0, #+0]   
// 1592         /* SAI2 clock source config set later after clock selection check */
// 1593         break;
        B.N      ??HAL_RCCEx_PeriphCLKConfig_255
// 1594 
// 1595       case RCC_SAI2CLKSOURCE_PLL2P: /* PLL2 is used as clock source for SAI2*/
// 1596         /* PLL2 P input clock, parameters M, N & P configuration and clock output (PLL2ClockOut) */
// 1597         ret = RCCEx_PLL2_Config(&(pPeriphClkInit->PLL2));
??HAL_RCCEx_PeriphCLKConfig_251:
        ADDS     R0,R4,#+8      
          CFI FunCall RCCEx_PLL2_Config
        BL       RCCEx_PLL2_Config
        MOVS     R5,R0          
// 1598         /* SAI2 clock source config set later after clock selection check */
// 1599         break;
        B.N      ??HAL_RCCEx_PeriphCLKConfig_255
// 1600 
// 1601       case RCC_SAI2CLKSOURCE_PLL3P:  /* PLL3 is used as clock source for SAI2*/
// 1602         /* PLL3 P input clock, parameters M, N & P configuration and clock output (PLL3ClockOut) */
// 1603         ret = RCCEx_PLL3_Config(&(pPeriphClkInit->PLL3));
??HAL_RCCEx_PeriphCLKConfig_252:
        ADDS     R0,R4,#+48     
          CFI FunCall RCCEx_PLL3_Config
        BL       RCCEx_PLL3_Config
        MOVS     R5,R0          
// 1604         /* SAI2 clock source config set later after clock selection check */
// 1605         break;
        B.N      ??HAL_RCCEx_PeriphCLKConfig_255
// 1606 
// 1607       case RCC_SAI2CLKSOURCE_PIN:      /* External clock is used as source of SAI2 clock*/
// 1608       case RCC_SAI2CLKSOURCE_CLKP:      /* CLKP is used as source of SAI2 clock*/
// 1609         /* SAI2 clock source config set later after clock selection check */
// 1610         break;
??HAL_RCCEx_PeriphCLKConfig_253:
        B.N      ??HAL_RCCEx_PeriphCLKConfig_255
// 1611 
// 1612       default:
// 1613         ret = HAL_ERROR;
??HAL_RCCEx_PeriphCLKConfig_254:
        MOVS     R5,#+1         
// 1614         break;
// 1615     }
// 1616 
// 1617     if (ret == HAL_OK)
??HAL_RCCEx_PeriphCLKConfig_255:
        MOVS     R0,R5          
        UXTB     R0,R0          
        CMP      R0,#+0         
        BNE.N    ??HAL_RCCEx_PeriphCLKConfig_256
// 1618     {
// 1619       /* Set the source of SAI2 clock*/
// 1620       __HAL_RCC_SAI2_CONFIG(pPeriphClkInit->Sai2ClockSelection);
        LDR.W    R1,??DataTable2
        LDR      R2,[R1, #+0]   
        BICS     R2,R2,#0x380000
        LDR      R0,[R4, #+196] 
        ORRS     R2,R0,R2       
        STR      R2,[R1, #+0]   
        B.N      ??HAL_RCCEx_PeriphCLKConfig_249
// 1621     }
// 1622     else
// 1623     {
// 1624       /* set overall return value */
// 1625       status = ret;
??HAL_RCCEx_PeriphCLKConfig_256:
        MOVS     R6,R5          
// 1626     }
// 1627   }
// 1628 #endif /* SAI2*/
// 1629 
// 1630   /*-------------------------- ADCDAC clock source configuration ----------------------*/
// 1631   if (((pPeriphClkInit->PeriphClockSelection) & RCC_PERIPHCLK_ADCDAC) == RCC_PERIPHCLK_ADCDAC)
??HAL_RCCEx_PeriphCLKConfig_249:
        LDRD     R0,R1,[R4, #+0]
        LSLS     R0,R0,#+10     
        BPL.N    ??HAL_RCCEx_PeriphCLKConfig_257
// 1632   {
// 1633     /* Check the parameters */
// 1634     assert_param(IS_RCC_ADCDACCLKSOURCE(pPeriphClkInit->AdcDacClockSelection));
// 1635 
// 1636     switch (pPeriphClkInit->AdcDacClockSelection)
        LDR      R0,[R4, #+208] 
        CMP      R0,#+0         
        CMP      R0,#+1         
        BLS.N    ??HAL_RCCEx_PeriphCLKConfig_258
        SUBS     R0,R0,#+2      
        BEQ.N    ??HAL_RCCEx_PeriphCLKConfig_259
        SUBS     R0,R0,#+1      
        CMP      R0,#+2         
        BLS.N    ??HAL_RCCEx_PeriphCLKConfig_260
        B.N      ??HAL_RCCEx_PeriphCLKConfig_261
// 1637     {
// 1638 
// 1639       case RCC_ADCDACCLKSOURCE_HCLK:   /* Bus clock is used as source of ADCDAC clock*/
// 1640       case RCC_ADCDACCLKSOURCE_SYSCLK: /* System clock is used as source of ADCDAC clock*/
// 1641         /* ADCDAC clock source config set later after clock selection check */
// 1642         break;
??HAL_RCCEx_PeriphCLKConfig_258:
        B.N      ??HAL_RCCEx_PeriphCLKConfig_262
// 1643 
// 1644       case RCC_ADCDACCLKSOURCE_PLL2R:
// 1645         /* PLL2 input clock, parameters M, N & R configuration and clock output (PLL2ClockOut) */
// 1646         ret = RCCEx_PLL2_Config(&(pPeriphClkInit->PLL2));
??HAL_RCCEx_PeriphCLKConfig_259:
        ADDS     R0,R4,#+8      
          CFI FunCall RCCEx_PLL2_Config
        BL       RCCEx_PLL2_Config
        MOVS     R5,R0          
// 1647         break;
        B.N      ??HAL_RCCEx_PeriphCLKConfig_262
// 1648 
// 1649       case RCC_ADCDACCLKSOURCE_HSE:/* HSE clock is used as source of ADCDAC clock*/
// 1650       case RCC_ADCDACCLKSOURCE_HSI:/* HSI clock is used as source of ADCDAC clock*/
// 1651       case RCC_ADCDACCLKSOURCE_CSI:/* CSI clock is used as source of ADCDAC clock*/
// 1652         /* ADCDAC clock source configuration done later after clock selection check */
// 1653         break;
??HAL_RCCEx_PeriphCLKConfig_260:
        B.N      ??HAL_RCCEx_PeriphCLKConfig_262
// 1654 
// 1655 
// 1656       default:
// 1657         ret = HAL_ERROR;
??HAL_RCCEx_PeriphCLKConfig_261:
        MOVS     R5,#+1         
// 1658         break;
// 1659     }
// 1660 
// 1661     if (ret == HAL_OK)
??HAL_RCCEx_PeriphCLKConfig_262:
        MOVS     R0,R5          
        UXTB     R0,R0          
        CMP      R0,#+0         
        BNE.N    ??HAL_RCCEx_PeriphCLKConfig_263
// 1662     {
// 1663       /* Configure the ADCDAC interface clock source */
// 1664       __HAL_RCC_ADCDAC_CONFIG(pPeriphClkInit->AdcDacClockSelection);
        LDR.W    R1,??DataTable2
        LDR      R2,[R1, #+0]   
        LSRS     R2,R2,#+3      
        LSLS     R2,R2,#+3      
        LDR      R0,[R4, #+208] 
        ORRS     R2,R0,R2       
        STR      R2,[R1, #+0]   
        B.N      ??HAL_RCCEx_PeriphCLKConfig_257
// 1665     }
// 1666     else
// 1667     {
// 1668       /* set overall return value */
// 1669       status = ret;
??HAL_RCCEx_PeriphCLKConfig_263:
        MOVS     R6,R5          
// 1670     }
// 1671 
// 1672   }
// 1673 
// 1674   /*-------------------------- DAC low-power clock source configuration ----------------------*/
// 1675   if (((pPeriphClkInit->PeriphClockSelection) & RCC_PERIPHCLK_DAC_LP) == RCC_PERIPHCLK_DAC_LP)
??HAL_RCCEx_PeriphCLKConfig_257:
        LDRD     R0,R1,[R4, #+0]
        ANDS     R0,R0,#0x0     
        ANDS     R1,R1,#0x200   
        CMP      R1,#+0         
        BNE.N    ??HAL_RCCEx_PeriphCLKConfig_264
        CMP      R0,#+0         
        BEQ.N    ??HAL_RCCEx_PeriphCLKConfig_265
// 1676   {
// 1677     /* Check the parameters */
// 1678     assert_param(IS_RCC_DACLPCLKSOURCE(pPeriphClkInit->DacLowPowerClockSelection));
// 1679 
// 1680     switch (pPeriphClkInit->DacLowPowerClockSelection)
??HAL_RCCEx_PeriphCLKConfig_264:
        LDR      R0,[R4, #+212] 
        CMP      R0,#+0         
        BEQ.N    ??HAL_RCCEx_PeriphCLKConfig_266
        CMP      R0,#+8         
        BEQ.N    ??HAL_RCCEx_PeriphCLKConfig_267
        B.N      ??HAL_RCCEx_PeriphCLKConfig_268
// 1681     {
// 1682 
// 1683       case RCC_DACLPCLKSOURCE_LSE:
// 1684         /* LSE oscillator is used as source of DAC low-power clock */
// 1685         /* DAC clock source configuration done later after clock selection check */
// 1686         break;
??HAL_RCCEx_PeriphCLKConfig_266:
        B.N      ??HAL_RCCEx_PeriphCLKConfig_269
// 1687 
// 1688       case RCC_DACLPCLKSOURCE_LSI:
// 1689         /* LSI is used as clock source for DAC low-power clock */
// 1690         /* DAC clock source configuration done later after clock selection check */
// 1691         break;
??HAL_RCCEx_PeriphCLKConfig_267:
        B.N      ??HAL_RCCEx_PeriphCLKConfig_269
// 1692 
// 1693       default:
// 1694         ret = HAL_ERROR;
??HAL_RCCEx_PeriphCLKConfig_268:
        MOVS     R5,#+1         
// 1695         break;
// 1696     }
// 1697 
// 1698     if (ret == HAL_OK)
??HAL_RCCEx_PeriphCLKConfig_269:
        MOVS     R0,R5          
        UXTB     R0,R0          
        CMP      R0,#+0         
        BNE.N    ??HAL_RCCEx_PeriphCLKConfig_270
// 1699     {
// 1700       /* Configure the DAC low-power interface clock source */
// 1701       __HAL_RCC_DAC_LP_CONFIG(pPeriphClkInit->DacLowPowerClockSelection);
        LDR.W    R1,??DataTable2
        LDR      R2,[R1, #+0]   
        BICS     R2,R2,#0x8     
        LDR      R0,[R4, #+212] 
        ORRS     R2,R0,R2       
        STR      R2,[R1, #+0]   
        B.N      ??HAL_RCCEx_PeriphCLKConfig_265
// 1702     }
// 1703     else
// 1704     {
// 1705       /* set overall return value */
// 1706       status = ret;
??HAL_RCCEx_PeriphCLKConfig_270:
        MOVS     R6,R5          
// 1707     }
// 1708 
// 1709   }
// 1710 
// 1711   /*-------------------------- RTC clock source configuration ----------------------*/
// 1712   if (((pPeriphClkInit->PeriphClockSelection) & RCC_PERIPHCLK_RTC) == RCC_PERIPHCLK_RTC)
??HAL_RCCEx_PeriphCLKConfig_265:
        LDRD     R0,R1,[R4, #+0]
        LSLS     R0,R0,#+6      
        BPL.N    ??HAL_RCCEx_PeriphCLKConfig_271
// 1713   {
// 1714 
// 1715     /* Check for RTC Parameters used to output RTCCLK */
// 1716     assert_param(IS_RCC_RTCCLKSOURCE(pPeriphClkInit->RTCClockSelection));
// 1717 
// 1718     /* Enable write access to Backup domain */
// 1719     SET_BIT(PWR->DBPCR, PWR_DBPCR_DBP);
        LDR.W    R8,??DataTable2_1
        LDR      R0,[R8, #+0]   
        ORRS     R0,R0,#0x1     
        STR      R0,[R8, #+0]   
// 1720 
// 1721     /* Wait for Backup domain Write protection disable */
// 1722     tickstart = HAL_GetTick();
          CFI FunCall HAL_GetTick
        BL       HAL_GetTick    
        MOVS     R7,R0          
// 1723 
// 1724     while (HAL_IS_BIT_CLR(PWR->DBPCR, PWR_DBPCR_DBP))
??HAL_RCCEx_PeriphCLKConfig_272:
        LDR      R0,[R8, #+0]   
        LSLS     R0,R0,#+31     
        BMI.N    ??HAL_RCCEx_PeriphCLKConfig_273
// 1725     {
// 1726       if ((HAL_GetTick() - tickstart) > RCC_DBP_TIMEOUT_VALUE)
          CFI FunCall HAL_GetTick
        BL       HAL_GetTick    
        SUBS     R0,R0,R7       
        CMP      R0,#+3         
        BCC.N    ??HAL_RCCEx_PeriphCLKConfig_272
// 1727       {
// 1728         ret = HAL_TIMEOUT;
        MOVS     R5,#+3         
// 1729         break;
// 1730       }
// 1731     }
// 1732 
// 1733     if (ret == HAL_OK)
??HAL_RCCEx_PeriphCLKConfig_273:
        MOVS     R0,R5          
        UXTB     R0,R0          
        CMP      R0,#+0         
        BNE.N    ??HAL_RCCEx_PeriphCLKConfig_274
// 1734     {
// 1735       /* Reset the Backup domain only if the RTC Clock source selection is modified from default */
// 1736       tmpregister = READ_BIT(RCC->BDCR, RCC_BDCR_RTCSEL);
        LDR.W    R7,??DataTable2_2
        LDR      R0,[R7, #+0]   
        ANDS     R0,R0,#0x300   
// 1737 
// 1738       if ((tmpregister != RCC_RTCCLKSOURCE_NO_CLK) && (tmpregister != pPeriphClkInit->RTCClockSelection))
        CMP      R0,#+0         
        BEQ.N    ??HAL_RCCEx_PeriphCLKConfig_275
        LDR      R1,[R4, #+244] 
        CMP      R0,R1          
        BEQ.N    ??HAL_RCCEx_PeriphCLKConfig_275
// 1739       {
// 1740         /* Store the content of BDCR register before the reset of Backup Domain */
// 1741         tmpregister = READ_BIT(RCC->BDCR, ~(RCC_BDCR_RTCSEL));
        LDR      R0,[R7, #+0]   
        BICS     R0,R0,#0x300   
// 1742         /* RTC Clock selection can be changed only if the Backup Domain is reset */
// 1743         __HAL_RCC_BACKUPRESET_FORCE();
        LDR      R1,[R7, #+0]   
        ORRS     R1,R1,#0x10000 
        STR      R1,[R7, #+0]   
// 1744         __HAL_RCC_BACKUPRESET_RELEASE();
        LDR      R1,[R7, #+0]   
        BICS     R1,R1,#0x10000 
        STR      R1,[R7, #+0]   
// 1745         /* Restore the Content of BDCR register */
// 1746         RCC->BDCR = tmpregister;
        STR      R0,[R7, #+0]   
// 1747       }
// 1748 
// 1749       /* Wait for LSE reactivation if LSE was enable prior to Backup Domain reset */
// 1750       if (HAL_IS_BIT_SET(tmpregister, RCC_BDCR_LSEON))
??HAL_RCCEx_PeriphCLKConfig_275:
        LSLS     R0,R0,#+31     
        BPL.N    ??HAL_RCCEx_PeriphCLKConfig_276
// 1751       {
// 1752         /* Get Start Tick*/
// 1753         tickstart = HAL_GetTick();
          CFI FunCall HAL_GetTick
        BL       HAL_GetTick    
        MOV      R8,R0          
// 1754 
// 1755         /* Wait till LSE is ready */
// 1756         while (READ_BIT(RCC->BDCR, RCC_BDCR_LSERDY) == 0U)
??HAL_RCCEx_PeriphCLKConfig_277:
        LDR      R0,[R7, #+0]   
        LSLS     R0,R0,#+30     
        BMI.N    ??HAL_RCCEx_PeriphCLKConfig_276
// 1757         {
// 1758           if ((HAL_GetTick() - tickstart) > RCC_LSE_TIMEOUT_VALUE)
          CFI FunCall HAL_GetTick
        BL       HAL_GetTick    
        SUBS     R0,R0,R8       
        MOVW     R1,#+5001      
        CMP      R0,R1          
        BCC.N    ??HAL_RCCEx_PeriphCLKConfig_277
// 1759           {
// 1760             ret = HAL_TIMEOUT;
        MOVS     R5,#+3         
// 1761             break;
// 1762           }
// 1763         }
// 1764       }
// 1765 
// 1766       if (ret == HAL_OK)
??HAL_RCCEx_PeriphCLKConfig_276:
        MOVS     R0,R5          
        UXTB     R0,R0          
        CMP      R0,#+0         
        BNE.N    ??HAL_RCCEx_PeriphCLKConfig_278
// 1767       {
// 1768         /* Apply new RTC clock source selection */
// 1769         __HAL_RCC_RTC_CONFIG(pPeriphClkInit->RTCClockSelection);
        LDR      R0,[R4, #+244] 
        ANDS     R0,R0,#0x300   
        CMP      R0,#+768       
        BNE.N    ??HAL_RCCEx_PeriphCLKConfig_279
        LDR.W    R0,??DataTable0
        LDR      R2,[R0, #+0]   
        BICS     R2,R2,#0x3F00  
        LDR      R3,[R4, #+244] 
        LDR.W    R1,??DataTable2_6
        ANDS     R1,R1,R3, LSR #+4
        ORRS     R1,R1,R2       
        STR      R1,[R0, #+0]   
        B.N      ??HAL_RCCEx_PeriphCLKConfig_280
??HAL_RCCEx_PeriphCLKConfig_279:
        LDR.W    R0,??DataTable0
        LDR      R1,[R0, #+0]   
        BICS     R1,R1,#0x3F00  
        STR      R1,[R0, #+0]   
??HAL_RCCEx_PeriphCLKConfig_280:
        LDR      R0,[R7, #+0]   
        BICS     R0,R0,#0x300   
        STR      R0,[R7, #+0]   
        LDR      R0,[R7, #+0]   
        LDR      R1,[R4, #+244] 
        LSLS     R1,R1,#+20     
        LSRS     R1,R1,#+20     
        ORRS     R0,R1,R0       
        STR      R0,[R7, #+0]   
        B.N      ??HAL_RCCEx_PeriphCLKConfig_271
        DATA
??HAL_RCCEx_PeriphCLKConfig_1:
        DATA32
        DC32     0x44020cdc     
        THUMB
// 1770       }
// 1771       else
// 1772       {
// 1773         /* set overall return value */
// 1774         status = ret;
??HAL_RCCEx_PeriphCLKConfig_278:
        MOVS     R6,R5          
        B.N      ??HAL_RCCEx_PeriphCLKConfig_271
// 1775       }
// 1776     }
// 1777     else
// 1778     {
// 1779       /* set overall return value */
// 1780       status = ret;
??HAL_RCCEx_PeriphCLKConfig_274:
        MOVS     R6,R5          
// 1781     }
// 1782 
// 1783   }
// 1784 
// 1785   /*------------------------------ RNG Configuration -------------------------*/
// 1786   if (((pPeriphClkInit->PeriphClockSelection) & RCC_PERIPHCLK_RNG) == RCC_PERIPHCLK_RNG)
??HAL_RCCEx_PeriphCLKConfig_271:
        LDRD     R0,R1,[R4, #+0]
        LSLS     R0,R0,#+5      
        BPL.N    ??HAL_RCCEx_PeriphCLKConfig_281
// 1787   {
// 1788 
// 1789     /* Check the parameters */
// 1790     assert_param(IS_RCC_RNGCLKSOURCE(pPeriphClkInit->RngClockSelection));
// 1791 
// 1792     switch (pPeriphClkInit->RngClockSelection)
        LDR      R0,[R4, #+200] 
        CMP      R0,#+0         
        BEQ.N    ??HAL_RCCEx_PeriphCLKConfig_282
        CMP      R0,#+16        
        BEQ.N    ??HAL_RCCEx_PeriphCLKConfig_283
        CMP      R0,#+32        
        BEQ.N    ??HAL_RCCEx_PeriphCLKConfig_284
        CMP      R0,#+48        
        BEQ.N    ??HAL_RCCEx_PeriphCLKConfig_285
        B.N      ??HAL_RCCEx_PeriphCLKConfig_286
// 1793     {
// 1794 
// 1795       case RCC_RNGCLKSOURCE_HSI48: /* HSI48 is used as clock source for RNG*/
// 1796 
// 1797         /* RNG clock source configuration done later after clock selection check */
// 1798         break;
??HAL_RCCEx_PeriphCLKConfig_282:
        B.N      ??HAL_RCCEx_PeriphCLKConfig_287
// 1799 
// 1800       case RCC_RNGCLKSOURCE_PLL1Q: /* PLL1 is used as clock source for RNG*/
// 1801         /* Enable PLL1Q Clock output generated from System PLL . */
// 1802         __HAL_RCC_PLL1_CLKOUT_ENABLE(RCC_PLL1_DIVQ);
??HAL_RCCEx_PeriphCLKConfig_283:
        LDR.W    R0,??DataTable1
        LDR      R1,[R0, #+0]   
        ORRS     R1,R1,#0x20000 
        STR      R1,[R0, #+0]   
// 1803         /* RNG clock source configuration done later after clock selection check */
// 1804         break;
        B.N      ??HAL_RCCEx_PeriphCLKConfig_287
// 1805       case RCC_RNGCLKSOURCE_LSE:
// 1806         /* LSE oscillator is used as source of RNG clock */
// 1807         /* RNG clock source configuration done later after clock selection check */
// 1808         break;
??HAL_RCCEx_PeriphCLKConfig_284:
        B.N      ??HAL_RCCEx_PeriphCLKConfig_287
// 1809 
// 1810       case RCC_RNGCLKSOURCE_LSI: /* HSI48 is used as clock source for RNG*/
// 1811 
// 1812         /* RNG clock source configuration done later after clock selection check */
// 1813         break;
??HAL_RCCEx_PeriphCLKConfig_285:
        B.N      ??HAL_RCCEx_PeriphCLKConfig_287
// 1814 
// 1815       default:
// 1816         ret = HAL_ERROR;
??HAL_RCCEx_PeriphCLKConfig_286:
        MOVS     R5,#+1         
// 1817         break;
// 1818     }
// 1819 
// 1820     if (ret == HAL_OK)
??HAL_RCCEx_PeriphCLKConfig_287:
        MOVS     R0,R5          
        UXTB     R0,R0          
        CMP      R0,#+0         
        BNE.N    ??HAL_RCCEx_PeriphCLKConfig_288
// 1821     {
// 1822       /* Set the source of RNG clock*/
// 1823       __HAL_RCC_RNG_CONFIG(pPeriphClkInit->RngClockSelection);
        LDR.W    R1,??DataTable2
        LDR      R2,[R1, #+0]   
        BICS     R2,R2,#0x30    
        LDR      R0,[R4, #+200] 
        ORRS     R2,R0,R2       
        STR      R2,[R1, #+0]   
        B.N      ??HAL_RCCEx_PeriphCLKConfig_281
// 1824     }
// 1825     else
// 1826     {
// 1827       /* set overall return value */
// 1828       status = ret;
??HAL_RCCEx_PeriphCLKConfig_288:
        MOVS     R6,R5          
// 1829     }
// 1830 
// 1831   }
// 1832 
// 1833 #if defined(SDMMC1)
// 1834   /*-------------------------- SDMMC1 clock source configuration -------------------*/
// 1835   if (((pPeriphClkInit->PeriphClockSelection) & RCC_PERIPHCLK_SDMMC1) == RCC_PERIPHCLK_SDMMC1)
??HAL_RCCEx_PeriphCLKConfig_281:
        LDRD     R0,R1,[R4, #+0]
        LSLS     R0,R0,#+9      
        BPL.N    ??HAL_RCCEx_PeriphCLKConfig_289
// 1836   {
// 1837 
// 1838     /* Check the parameters */
// 1839     assert_param(IS_RCC_SDMMC1CLKSOURCE(pPeriphClkInit->Sdmmc1ClockSelection));
// 1840 
// 1841     switch (pPeriphClkInit->Sdmmc1ClockSelection)
        LDR      R0,[R4, #+204] 
        CMP      R0,#+0         
        BEQ.N    ??HAL_RCCEx_PeriphCLKConfig_290
        CMP      R0,#+64        
        BEQ.N    ??HAL_RCCEx_PeriphCLKConfig_291
        B.N      ??HAL_RCCEx_PeriphCLKConfig_292
// 1842     {
// 1843       case RCC_SDMMC1CLKSOURCE_PLL1Q:      /* PLL1 is used as clock source for SDMMC1 kernel clock*/
// 1844         /* Enable PLL1Q Clock output generated from System PLL . */
// 1845         __HAL_RCC_PLL1_CLKOUT_ENABLE(RCC_PLL1_DIVQ);
??HAL_RCCEx_PeriphCLKConfig_290:
        LDR.W    R0,??DataTable1
        LDR      R1,[R0, #+0]   
        ORRS     R1,R1,#0x20000 
        STR      R1,[R0, #+0]   
// 1846         /* SDMMC1 kernel clock source config set later after clock selection check */
// 1847         break;
        B.N      ??HAL_RCCEx_PeriphCLKConfig_293
// 1848 
// 1849       case RCC_SDMMC1CLKSOURCE_PLL2R:  /* PLL2 is used as clock source for SDMMC1 kernel clock*/
// 1850         /* PLL2R input clock, parameters M, N & R configuration and clock output (PLL2ClockOut) */
// 1851         ret = RCCEx_PLL2_Config(&(pPeriphClkInit->PLL2));
??HAL_RCCEx_PeriphCLKConfig_291:
        ADDS     R0,R4,#+8      
          CFI FunCall RCCEx_PLL2_Config
        BL       RCCEx_PLL2_Config
        MOVS     R5,R0          
// 1852         /* SDMMC1 kernel clock source config set later after clock selection check */
// 1853         break;
        B.N      ??HAL_RCCEx_PeriphCLKConfig_293
// 1854 
// 1855       default:
// 1856         ret = HAL_ERROR;
??HAL_RCCEx_PeriphCLKConfig_292:
        MOVS     R5,#+1         
// 1857         break;
// 1858     }
// 1859 
// 1860     if (ret == HAL_OK)
??HAL_RCCEx_PeriphCLKConfig_293:
        MOVS     R0,R5          
        UXTB     R0,R0          
        CMP      R0,#+0         
        BNE.N    ??HAL_RCCEx_PeriphCLKConfig_294
// 1861     {
// 1862       /* Configure the SDMMC1 clock source */
// 1863       __HAL_RCC_SDMMC1_CONFIG(pPeriphClkInit->Sdmmc1ClockSelection);
        LDR.W    R1,??HAL_RCCEx_PeriphCLKConfig_2+0x4
        LDR      R2,[R1, #+0]   
        BICS     R2,R2,#0x40    
        LDR      R0,[R4, #+204] 
        ORRS     R2,R0,R2       
        STR      R2,[R1, #+0]   
        B.N      ??HAL_RCCEx_PeriphCLKConfig_289
// 1864     }
// 1865     else
// 1866     {
// 1867       /* set overall return value */
// 1868       status = ret;
??HAL_RCCEx_PeriphCLKConfig_294:
        MOVS     R6,R5          
// 1869     }
// 1870 
// 1871   }
// 1872 #endif /* SDMMC1 */
// 1873 
// 1874 #if defined(SDMMC2)
// 1875   /*-------------------------- SDMMC2 clock source configuration -------------------*/
// 1876   if (((pPeriphClkInit->PeriphClockSelection) & RCC_PERIPHCLK_SDMMC2) == RCC_PERIPHCLK_SDMMC2)
// 1877   {
// 1878 
// 1879     /* Check the parameters */
// 1880     assert_param(IS_RCC_SDMMC2CLKSOURCE(pPeriphClkInit->Sdmmc2ClockSelection));
// 1881 
// 1882     switch (pPeriphClkInit->Sdmmc2ClockSelection)
// 1883     {
// 1884       case RCC_SDMMC2CLKSOURCE_PLL1Q:      /* PLL1 is used as clock source for SDMMC2 kernel clock*/
// 1885         /* Enable PLL1Q Clock output generated from System PLL . */
// 1886         __HAL_RCC_PLL1_CLKOUT_ENABLE(RCC_PLL1_DIVQ);
// 1887         /* SDMMC2 kernel clock source config set later after clock selection check */
// 1888         break;
// 1889 
// 1890       case RCC_SDMMC2CLKSOURCE_PLL2R:  /* PLL2 is used as clock source for SDMMC2 kernel clock*/
// 1891         /* PLL2R input clock, parameters M, N & R configuration and clock output (PLL2ClockOut) */
// 1892         ret = RCCEx_PLL2_Config(&(pPeriphClkInit->PLL2));
// 1893         /* SDMMC2 kernel clock source config set later after clock selection check */
// 1894         break;
// 1895 
// 1896       default:
// 1897         ret = HAL_ERROR;
// 1898         break;
// 1899     }
// 1900 
// 1901     if (ret == HAL_OK)
// 1902     {
// 1903       /* Configure the SDMMC2 clock source */
// 1904       __HAL_RCC_SDMMC2_CONFIG(pPeriphClkInit->Sdmmc2ClockSelection);
// 1905     }
// 1906     else
// 1907     {
// 1908       /* set overall return value */
// 1909       status = ret;
// 1910     }
// 1911 
// 1912   }
// 1913 #endif /* SDMMC2 */
// 1914 
// 1915   /*-------------------------- SPI1 clock source configuration ----------------*/
// 1916   if (((pPeriphClkInit->PeriphClockSelection) & RCC_PERIPHCLK_SPI1) == RCC_PERIPHCLK_SPI1)
??HAL_RCCEx_PeriphCLKConfig_289:
        LDRD     R0,R1,[R4, #+0]
        LSLS     R0,R0,#+4      
        BPL.N    ??HAL_RCCEx_PeriphCLKConfig_295
// 1917   {
// 1918 
// 1919     /* Check the parameters */
// 1920     assert_param(IS_RCC_SPI1CLKSOURCE(pPeriphClkInit->Spi1ClockSelection));
// 1921 
// 1922     switch (pPeriphClkInit->Spi1ClockSelection)
        LDR      R0,[R4, #+220] 
        CMP      R0,#+0         
        BEQ.N    ??HAL_RCCEx_PeriphCLKConfig_296
        CMP      R0,#+2         
        BEQ.N    ??HAL_RCCEx_PeriphCLKConfig_297
        BCC.N    ??HAL_RCCEx_PeriphCLKConfig_298
        CMP      R0,#+4         
        BEQ.N    ??HAL_RCCEx_PeriphCLKConfig_299
        BCC.N    ??HAL_RCCEx_PeriphCLKConfig_300
        B.N      ??HAL_RCCEx_PeriphCLKConfig_301
// 1923     {
// 1924       case RCC_SPI1CLKSOURCE_PLL1Q:      /* PLL1 is used as clock source for SPI1 */
// 1925         /* Enable SPI Clock output generated from System PLL . */
// 1926         __HAL_RCC_PLL1_CLKOUT_ENABLE(RCC_PLL1_DIVQ);
??HAL_RCCEx_PeriphCLKConfig_296:
        LDR.W    R0,??DataTable1
        LDR      R1,[R0, #+0]   
        ORRS     R1,R1,#0x20000 
        STR      R1,[R0, #+0]   
// 1927 
// 1928         /* SPI1 clock source configuration done later after clock selection check */
// 1929         break;
        B.N      ??HAL_RCCEx_PeriphCLKConfig_302
// 1930 
// 1931       case RCC_SPI1CLKSOURCE_PLL2P: /* PLL2 is used as clock source for SPI1*/
// 1932         /* PLL2 P input clock, parameters M, N & P configuration and clock output (PLL2ClockOut) */
// 1933         ret = RCCEx_PLL2_Config(&(pPeriphClkInit->PLL2));
??HAL_RCCEx_PeriphCLKConfig_298:
        ADDS     R0,R4,#+8      
          CFI FunCall RCCEx_PLL2_Config
        BL       RCCEx_PLL2_Config
        MOVS     R5,R0          
// 1934 
// 1935         /* SPI1 clock source configuration done later after clock selection check */
// 1936         break;
        B.N      ??HAL_RCCEx_PeriphCLKConfig_302
// 1937 
// 1938 #if defined(RCC_SPI1CLKSOURCE_PLL3P)
// 1939       case RCC_SPI1CLKSOURCE_PLL3P:  /* PLL3 is used as clock source for SPI1 */
// 1940         /* PLL3 P input clock, parameters M, N & P configuration and clock output (PLL3ClockOut) */
// 1941         ret = RCCEx_PLL3_Config(&(pPeriphClkInit->PLL3));
??HAL_RCCEx_PeriphCLKConfig_297:
        ADDS     R0,R4,#+48     
          CFI FunCall RCCEx_PLL3_Config
        BL       RCCEx_PLL3_Config
        MOVS     R5,R0          
// 1942 
// 1943         /* SPI1 clock source configuration done later after clock selection check */
// 1944         break;
        B.N      ??HAL_RCCEx_PeriphCLKConfig_302
// 1945 #endif /* RCC_SPI1CLKSOURCE_PLL3P */
// 1946 
// 1947       case RCC_SPI1CLKSOURCE_PIN:
// 1948         /* External clock is used as source of SPI1 clock*/
// 1949         /* SPI1 clock source configuration done later after clock selection check */
// 1950         break;
??HAL_RCCEx_PeriphCLKConfig_300:
        B.N      ??HAL_RCCEx_PeriphCLKConfig_302
// 1951 
// 1952       case RCC_SPI1CLKSOURCE_CLKP:
// 1953         /* HSI, HSE, or CSI oscillator is used as source of SPI1 clock */
// 1954         /* SPI1 clock source configuration done later after clock selection check */
// 1955         break;
??HAL_RCCEx_PeriphCLKConfig_299:
        B.N      ??HAL_RCCEx_PeriphCLKConfig_302
// 1956 
// 1957       default:
// 1958         ret = HAL_ERROR;
??HAL_RCCEx_PeriphCLKConfig_301:
        MOVS     R5,#+1         
// 1959         break;
// 1960     }
// 1961 
// 1962     if (ret == HAL_OK)
??HAL_RCCEx_PeriphCLKConfig_302:
        MOVS     R0,R5          
        UXTB     R0,R0          
        CMP      R0,#+0         
        BNE.N    ??HAL_RCCEx_PeriphCLKConfig_303
// 1963     {
// 1964       /* Configure the SPI1 clock source */
// 1965       __HAL_RCC_SPI1_CONFIG(pPeriphClkInit->Spi1ClockSelection);
        LDR.N    R1,??HAL_RCCEx_PeriphCLKConfig_2
        LDR      R2,[R1, #+0]   
        LSRS     R2,R2,#+3      
        LSLS     R2,R2,#+3      
        LDR      R0,[R4, #+220] 
        ORRS     R2,R0,R2       
        STR      R2,[R1, #+0]   
        B.N      ??HAL_RCCEx_PeriphCLKConfig_295
// 1966     }
// 1967     else
// 1968     {
// 1969       /* set overall return value */
// 1970       status = ret;
??HAL_RCCEx_PeriphCLKConfig_303:
        MOVS     R6,R5          
// 1971     }
// 1972 
// 1973   }
// 1974 
// 1975   /*-------------------------- SPI2 clock source configuration ----------------*/
// 1976   if (((pPeriphClkInit->PeriphClockSelection) & RCC_PERIPHCLK_SPI2) == RCC_PERIPHCLK_SPI2)
??HAL_RCCEx_PeriphCLKConfig_295:
        LDRD     R0,R1,[R4, #+0]
        LSLS     R0,R0,#+3      
        BPL.N    ??HAL_RCCEx_PeriphCLKConfig_304
// 1977   {
// 1978 
// 1979     /* Check the parameters */
// 1980     assert_param(IS_RCC_SPI2CLKSOURCE(pPeriphClkInit->Spi2ClockSelection));
// 1981 
// 1982     switch (pPeriphClkInit->Spi2ClockSelection)
        LDR      R0,[R4, #+224] 
        CMP      R0,#+0         
        BEQ.N    ??HAL_RCCEx_PeriphCLKConfig_305
        CMP      R0,#+8         
        BEQ.N    ??HAL_RCCEx_PeriphCLKConfig_306
        CMP      R0,#+16        
        BEQ.N    ??HAL_RCCEx_PeriphCLKConfig_307
        CMP      R0,#+24        
        BEQ.N    ??HAL_RCCEx_PeriphCLKConfig_308
        CMP      R0,#+32        
        BEQ.N    ??HAL_RCCEx_PeriphCLKConfig_309
        B.N      ??HAL_RCCEx_PeriphCLKConfig_310
// 1983     {
// 1984       case RCC_SPI2CLKSOURCE_PLL1Q:      /* PLL1 is used as clock source for SPI2 */
// 1985         /* Enable SPI Clock output generated from System PLL . */
// 1986         __HAL_RCC_PLL1_CLKOUT_ENABLE(RCC_PLL1_DIVQ);
??HAL_RCCEx_PeriphCLKConfig_305:
        LDR.W    R0,??DataTable1
        LDR      R1,[R0, #+0]   
        ORRS     R1,R1,#0x20000 
        STR      R1,[R0, #+0]   
// 1987 
// 1988         /* SPI2 clock source configuration done later after clock selection check */
// 1989         break;
        B.N      ??HAL_RCCEx_PeriphCLKConfig_311
// 1990 
// 1991       case RCC_SPI2CLKSOURCE_PLL2P: /* PLL2 is used as clock source for SPI2*/
// 1992         /* PLL2 P input clock, parameters M, N & P configuration and clock output (PLL2ClockOut) */
// 1993         ret = RCCEx_PLL2_Config(&(pPeriphClkInit->PLL2));
??HAL_RCCEx_PeriphCLKConfig_306:
        ADDS     R0,R4,#+8      
          CFI FunCall RCCEx_PLL2_Config
        BL       RCCEx_PLL2_Config
        MOVS     R5,R0          
// 1994 
// 1995         /* SPI2 clock source configuration done later after clock selection check */
// 1996         break;
        B.N      ??HAL_RCCEx_PeriphCLKConfig_311
// 1997 
// 1998 #if defined(RCC_SPI2CLKSOURCE_PLL3P)
// 1999       case RCC_SPI2CLKSOURCE_PLL3P:  /* PLL3 is used as clock source for SPI2 */
// 2000         /* PLL3 P input clock, parameters M, N & P configuration and clock output (PLL3ClockOut) */
// 2001         ret = RCCEx_PLL3_Config(&(pPeriphClkInit->PLL3));
??HAL_RCCEx_PeriphCLKConfig_307:
        ADDS     R0,R4,#+48     
          CFI FunCall RCCEx_PLL3_Config
        BL       RCCEx_PLL3_Config
        MOVS     R5,R0          
// 2002 
// 2003         /* SPI2 clock source configuration done later after clock selection check */
// 2004         break;
        B.N      ??HAL_RCCEx_PeriphCLKConfig_311
// 2005 #endif /* RCC_SPI2CLKSOURCE_PLL3P */
// 2006 
// 2007       case RCC_SPI2CLKSOURCE_PIN:
// 2008         /* External clock is used as source of SPI2 clock*/
// 2009         /* SPI2 clock source configuration done later after clock selection check */
// 2010         break;
??HAL_RCCEx_PeriphCLKConfig_308:
        B.N      ??HAL_RCCEx_PeriphCLKConfig_311
// 2011 
// 2012       case RCC_SPI2CLKSOURCE_CLKP:
// 2013         /* HSI, HSE, or CSI oscillator is used as source of SPI2 clock */
// 2014         /* SPI2 clock source configuration done later after clock selection check */
// 2015         break;
??HAL_RCCEx_PeriphCLKConfig_309:
        B.N      ??HAL_RCCEx_PeriphCLKConfig_311
// 2016 
// 2017       default:
// 2018         ret = HAL_ERROR;
??HAL_RCCEx_PeriphCLKConfig_310:
        MOVS     R5,#+1         
// 2019         break;
// 2020     }
// 2021 
// 2022     if (ret == HAL_OK)
??HAL_RCCEx_PeriphCLKConfig_311:
        MOVS     R0,R5          
        UXTB     R0,R0          
        CMP      R0,#+0         
        BNE.N    ??HAL_RCCEx_PeriphCLKConfig_312
// 2023     {
// 2024       /* Configure the SPI2 clock source */
// 2025       __HAL_RCC_SPI2_CONFIG(pPeriphClkInit->Spi2ClockSelection);
        LDR.N    R1,??HAL_RCCEx_PeriphCLKConfig_2
        LDR      R2,[R1, #+0]   
        BICS     R2,R2,#0x38    
        LDR      R0,[R4, #+224] 
        ORRS     R2,R0,R2       
        STR      R2,[R1, #+0]   
        B.N      ??HAL_RCCEx_PeriphCLKConfig_304
// 2026     }
// 2027     else
// 2028     {
// 2029       /* set overall return value */
// 2030       status = ret;
??HAL_RCCEx_PeriphCLKConfig_312:
        MOVS     R6,R5          
// 2031     }
// 2032 
// 2033   }
// 2034 
// 2035   /*-------------------------- SPI3 clock source configuration ----------------*/
// 2036   if (((pPeriphClkInit->PeriphClockSelection) & RCC_PERIPHCLK_SPI3) == RCC_PERIPHCLK_SPI3)
??HAL_RCCEx_PeriphCLKConfig_304:
        LDRD     R0,R1,[R4, #+0]
        LSLS     R0,R0,#+2      
        BPL.N    ??HAL_RCCEx_PeriphCLKConfig_313
// 2037   {
// 2038 
// 2039     /* Check the parameters */
// 2040     assert_param(IS_RCC_SPI3CLKSOURCE(pPeriphClkInit->Spi3ClockSelection));
// 2041 
// 2042     switch (pPeriphClkInit->Spi3ClockSelection)
        LDR      R0,[R4, #+228] 
        CMP      R0,#+0         
        BEQ.N    ??HAL_RCCEx_PeriphCLKConfig_314
        CMP      R0,#+64        
        BEQ.N    ??HAL_RCCEx_PeriphCLKConfig_315
        CMP      R0,#+128       
        BEQ.N    ??HAL_RCCEx_PeriphCLKConfig_316
        CMP      R0,#+192       
        BEQ.N    ??HAL_RCCEx_PeriphCLKConfig_317
        CMP      R0,#+256       
        BEQ.N    ??HAL_RCCEx_PeriphCLKConfig_318
        B.N      ??HAL_RCCEx_PeriphCLKConfig_319
// 2043     {
// 2044       case RCC_SPI3CLKSOURCE_PLL1Q:      /* PLL1 is used as clock source for SPI3 */
// 2045         /* Enable SPI Clock output generated from System PLL . */
// 2046         __HAL_RCC_PLL1_CLKOUT_ENABLE(RCC_PLL1_DIVQ);
??HAL_RCCEx_PeriphCLKConfig_314:
        LDR.W    R0,??DataTable1
        LDR      R1,[R0, #+0]   
        ORRS     R1,R1,#0x20000 
        STR      R1,[R0, #+0]   
// 2047 
// 2048         /* SPI3 clock source configuration done later after clock selection check */
// 2049         break;
        B.N      ??HAL_RCCEx_PeriphCLKConfig_320
// 2050 
// 2051       case RCC_SPI3CLKSOURCE_PLL2P: /* PLL2 is used as clock source for SPI3*/
// 2052         /* PLL2 P input clock, parameters M, N & P configuration and clock output (PLL2ClockOut) */
// 2053         ret = RCCEx_PLL2_Config(&(pPeriphClkInit->PLL2));
??HAL_RCCEx_PeriphCLKConfig_315:
        ADDS     R0,R4,#+8      
          CFI FunCall RCCEx_PLL2_Config
        BL       RCCEx_PLL2_Config
        MOVS     R5,R0          
// 2054 
// 2055         /* SPI3 clock source configuration done later after clock selection check */
// 2056         break;
        B.N      ??HAL_RCCEx_PeriphCLKConfig_320
// 2057 
// 2058 #if defined(RCC_SPI3CLKSOURCE_PLL3P)
// 2059       case RCC_SPI3CLKSOURCE_PLL3P:  /* PLL3 is used as clock source for SPI3 */
// 2060         /* PLL3 P input clock, parameters M, N & P configuration and clock output (PLL3ClockOut) */
// 2061         ret = RCCEx_PLL3_Config(&(pPeriphClkInit->PLL3));
??HAL_RCCEx_PeriphCLKConfig_316:
        ADDS     R0,R4,#+48     
          CFI FunCall RCCEx_PLL3_Config
        BL       RCCEx_PLL3_Config
        MOVS     R5,R0          
// 2062 
// 2063         /* SPI3 clock source configuration done later after clock selection check */
// 2064         break;
        B.N      ??HAL_RCCEx_PeriphCLKConfig_320
// 2065 #endif /* RCC_SPI3CLKSOURCE_PLL3P */
// 2066 
// 2067       case RCC_SPI3CLKSOURCE_PIN:
// 2068         /* External clock is used as source of SPI3 clock*/
// 2069         /* SPI3 clock source configuration done later after clock selection check */
// 2070         break;
??HAL_RCCEx_PeriphCLKConfig_317:
        B.N      ??HAL_RCCEx_PeriphCLKConfig_320
// 2071 
// 2072       case RCC_SPI3CLKSOURCE_CLKP:
// 2073         /* HSI, HSE, or CSI oscillator is used as source of SPI3 clock */
// 2074         /* SPI3 clock source configuration done later after clock selection check */
// 2075         break;
??HAL_RCCEx_PeriphCLKConfig_318:
        B.N      ??HAL_RCCEx_PeriphCLKConfig_320
// 2076 
// 2077       default:
// 2078         ret = HAL_ERROR;
??HAL_RCCEx_PeriphCLKConfig_319:
        MOVS     R5,#+1         
// 2079         break;
// 2080     }
// 2081 
// 2082     if (ret == HAL_OK)
??HAL_RCCEx_PeriphCLKConfig_320:
        MOVS     R0,R5          
        UXTB     R0,R0          
        CMP      R0,#+0         
        BNE.N    ??HAL_RCCEx_PeriphCLKConfig_321
// 2083     {
// 2084       /* Configure the SPI3 clock source */
// 2085       __HAL_RCC_SPI3_CONFIG(pPeriphClkInit->Spi3ClockSelection);
        LDR.N    R1,??HAL_RCCEx_PeriphCLKConfig_2
        LDR      R2,[R1, #+0]   
        BICS     R2,R2,#0x1C0   
        LDR      R0,[R4, #+228] 
        ORRS     R2,R0,R2       
        STR      R2,[R1, #+0]   
        B.N      ??HAL_RCCEx_PeriphCLKConfig_313
// 2086     }
// 2087     else
// 2088     {
// 2089       /* set overall return value */
// 2090       status = ret;
??HAL_RCCEx_PeriphCLKConfig_321:
        MOVS     R6,R5          
// 2091     }
// 2092 
// 2093   }
// 2094 
// 2095 #if defined(SPI4)
// 2096   /*-------------------------- SPI4 clock source configuration ----------------*/
// 2097   if (((pPeriphClkInit->PeriphClockSelection) & RCC_PERIPHCLK_SPI4) == RCC_PERIPHCLK_SPI4)
??HAL_RCCEx_PeriphCLKConfig_313:
        LDRD     R0,R1,[R4, #+0]
        LSLS     R0,R0,#+1      
        BPL.N    ??HAL_RCCEx_PeriphCLKConfig_322
// 2098   {
// 2099 
// 2100     /* Check the parameters */
// 2101     assert_param(IS_RCC_SPI4CLKSOURCE(pPeriphClkInit->Spi4ClockSelection));
// 2102 
// 2103     switch (pPeriphClkInit->Spi4ClockSelection)
        LDR      R0,[R4, #+232] 
        CMP      R0,#+0         
        BEQ.N    ??HAL_RCCEx_PeriphCLKConfig_323
        CMP      R0,#+512       
        BEQ.N    ??HAL_RCCEx_PeriphCLKConfig_324
        CMP      R0,#+1024      
        BEQ.N    ??HAL_RCCEx_PeriphCLKConfig_325
        CMP      R0,#+1536      
        BEQ.N    ??HAL_RCCEx_PeriphCLKConfig_326
        CMP      R0,#+2048      
        BEQ.N    ??HAL_RCCEx_PeriphCLKConfig_327
        CMP      R0,#+2560      
        BEQ.N    ??HAL_RCCEx_PeriphCLKConfig_328
        B.N      ??HAL_RCCEx_PeriphCLKConfig_329
// 2104     {
// 2105       case RCC_SPI4CLKSOURCE_PCLK2:  /* PCLK2 (APB2 Clock) is used as clock source for SPI4 */
// 2106         /* SPI4 clock source configuration done later after clock selection check */
// 2107         break;
??HAL_RCCEx_PeriphCLKConfig_323:
        B.N      ??HAL_RCCEx_PeriphCLKConfig_330
// 2108 
// 2109       case RCC_SPI4CLKSOURCE_PLL2Q: /* PLL2 is used as clock source for SPI4*/
// 2110         /* PLL2 Q input clock, parameters M, N & P configuration and clock output (PLL2ClockOut) */
// 2111         ret = RCCEx_PLL2_Config(&(pPeriphClkInit->PLL2));
??HAL_RCCEx_PeriphCLKConfig_324:
        ADDS     R0,R4,#+8      
          CFI FunCall RCCEx_PLL2_Config
        BL       RCCEx_PLL2_Config
        MOVS     R5,R0          
// 2112 
// 2113         /* SPI4 clock source configuration done later after clock selection check */
// 2114         break;
        B.N      ??HAL_RCCEx_PeriphCLKConfig_330
// 2115 
// 2116       case RCC_SPI4CLKSOURCE_PLL3Q:  /* PLL3 is used as clock source for SPI4 */
// 2117         /* PLL3 Q input clock, parameters M, N & P configuration and clock output (PLL3ClockOut) */
// 2118         ret = RCCEx_PLL3_Config(&(pPeriphClkInit->PLL3));
??HAL_RCCEx_PeriphCLKConfig_325:
        ADDS     R0,R4,#+48     
          CFI FunCall RCCEx_PLL3_Config
        BL       RCCEx_PLL3_Config
        MOVS     R5,R0          
// 2119 
// 2120         /* SPI4 clock source configuration done later after clock selection check */
// 2121         break;
        B.N      ??HAL_RCCEx_PeriphCLKConfig_330
// 2122 
// 2123       case RCC_SPI4CLKSOURCE_HSI:
// 2124         /* HSI oscillator is used as source of SPI4 clock*/
// 2125         /* SPI4 clock source configuration done later after clock selection check */
// 2126         break;
??HAL_RCCEx_PeriphCLKConfig_326:
        B.N      ??HAL_RCCEx_PeriphCLKConfig_330
// 2127 
// 2128       case RCC_SPI4CLKSOURCE_CSI:
// 2129         /*  CSI oscillator is used as source of SPI4 clock */
// 2130         /* SPI4 clock source configuration done later after clock selection check */
// 2131         break;
??HAL_RCCEx_PeriphCLKConfig_327:
        B.N      ??HAL_RCCEx_PeriphCLKConfig_330
// 2132 
// 2133       case RCC_SPI4CLKSOURCE_HSE:
// 2134         /*  HSE oscillator is used as source of SPI4 clock */
// 2135         /* SPI4 clock source configuration done later after clock selection check */
// 2136         break;
??HAL_RCCEx_PeriphCLKConfig_328:
        B.N      ??HAL_RCCEx_PeriphCLKConfig_330
// 2137 
// 2138       default:
// 2139         ret = HAL_ERROR;
??HAL_RCCEx_PeriphCLKConfig_329:
        MOVS     R5,#+1         
// 2140         break;
// 2141     }
// 2142 
// 2143     if (ret == HAL_OK)
??HAL_RCCEx_PeriphCLKConfig_330:
        MOVS     R0,R5          
        UXTB     R0,R0          
        CMP      R0,#+0         
        BNE.N    ??HAL_RCCEx_PeriphCLKConfig_331
// 2144     {
// 2145       /* Configure the SPI4 clock source */
// 2146       __HAL_RCC_SPI4_CONFIG(pPeriphClkInit->Spi4ClockSelection);
        LDR.N    R1,??HAL_RCCEx_PeriphCLKConfig_2
        LDR      R2,[R1, #+0]   
        BICS     R2,R2,#0xE00   
        LDR      R0,[R4, #+232] 
        ORRS     R2,R0,R2       
        STR      R2,[R1, #+0]   
        B.N      ??HAL_RCCEx_PeriphCLKConfig_322
// 2147     }
// 2148     else
// 2149     {
// 2150       /* set overall return value */
// 2151       status = ret;
??HAL_RCCEx_PeriphCLKConfig_331:
        MOVS     R6,R5          
// 2152     }
// 2153 
// 2154   }
// 2155 #endif /* SPI4 */
// 2156 
// 2157 #if defined(SPI5)
// 2158   /*-------------------------- SPI5 clock source configuration ----------------*/
// 2159   if (((pPeriphClkInit->PeriphClockSelection) & RCC_PERIPHCLK_SPI5) == RCC_PERIPHCLK_SPI5)
??HAL_RCCEx_PeriphCLKConfig_322:
        LDRD     R0,R1,[R4, #+0]
        CMP      R0,#+0         
        BPL.N    ??HAL_RCCEx_PeriphCLKConfig_332
// 2160   {
// 2161 
// 2162     /* Check the parameters */
// 2163     assert_param(IS_RCC_SPI5CLKSOURCE(pPeriphClkInit->Spi5ClockSelection));
// 2164 
// 2165     switch (pPeriphClkInit->Spi5ClockSelection)
        LDR      R0,[R4, #+236] 
        CMP      R0,#+0         
        BEQ.N    ??HAL_RCCEx_PeriphCLKConfig_333
        CMP      R0,#+4096      
        BEQ.N    ??HAL_RCCEx_PeriphCLKConfig_334
        CMP      R0,#+8192      
        BEQ.N    ??HAL_RCCEx_PeriphCLKConfig_335
        CMP      R0,#+12288     
        BEQ.N    ??HAL_RCCEx_PeriphCLKConfig_336
        CMP      R0,#+16384     
        BEQ.N    ??HAL_RCCEx_PeriphCLKConfig_337
        CMP      R0,#+20480     
        BEQ.N    ??HAL_RCCEx_PeriphCLKConfig_338
        B.N      ??HAL_RCCEx_PeriphCLKConfig_339
// 2166     {
// 2167       case RCC_SPI5CLKSOURCE_PCLK3:  /* PCLK3 (APB3 Clock) is used as clock source for SPI5 */
// 2168         /* SPI5 clock source configuration done later after clock selection check */
// 2169         break;
??HAL_RCCEx_PeriphCLKConfig_333:
        B.N      ??HAL_RCCEx_PeriphCLKConfig_340
// 2170 
// 2171       case RCC_SPI5CLKSOURCE_PLL2Q: /* PLL2 is used as clock source for SPI5*/
// 2172         /* PLL2 Q input clock, parameters M, N & P configuration and clock output (PLL2ClockOut) */
// 2173         ret = RCCEx_PLL2_Config(&(pPeriphClkInit->PLL2));
??HAL_RCCEx_PeriphCLKConfig_334:
        ADDS     R0,R4,#+8      
          CFI FunCall RCCEx_PLL2_Config
        BL       RCCEx_PLL2_Config
        MOVS     R5,R0          
// 2174 
// 2175         /* SPI5 clock source configuration done later after clock selection check */
// 2176         break;
        B.N      ??HAL_RCCEx_PeriphCLKConfig_340
// 2177 
// 2178       case RCC_SPI5CLKSOURCE_PLL3Q:  /* PLL3 is used as clock source for SPI5 */
// 2179         /* PLL3 Q input clock, parameters M, N & P configuration and clock output (PLL3ClockOut) */
// 2180         ret = RCCEx_PLL3_Config(&(pPeriphClkInit->PLL3));
??HAL_RCCEx_PeriphCLKConfig_335:
        ADDS     R0,R4,#+48     
          CFI FunCall RCCEx_PLL3_Config
        BL       RCCEx_PLL3_Config
        MOVS     R5,R0          
// 2181 
// 2182         /* SPI5 clock source configuration done later after clock selection check */
// 2183         break;
        B.N      ??HAL_RCCEx_PeriphCLKConfig_340
// 2184 
// 2185       case RCC_SPI5CLKSOURCE_HSI:
// 2186         /* HSI oscillator is used as source of SPI5 clock*/
// 2187         /* SPI5 clock source configuration done later after clock selection check */
// 2188         break;
??HAL_RCCEx_PeriphCLKConfig_336:
        B.N      ??HAL_RCCEx_PeriphCLKConfig_340
// 2189 
// 2190       case RCC_SPI5CLKSOURCE_CSI:
// 2191         /*  CSI oscillator is used as source of SPI5 clock */
// 2192         /* SPI5 clock source configuration done later after clock selection check */
// 2193         break;
??HAL_RCCEx_PeriphCLKConfig_337:
        B.N      ??HAL_RCCEx_PeriphCLKConfig_340
// 2194 
// 2195       case RCC_SPI5CLKSOURCE_HSE:
// 2196         /*  HSE oscillator is used as source of SPI5 clock */
// 2197         /* SPI5 clock source configuration done later after clock selection check */
// 2198         break;
??HAL_RCCEx_PeriphCLKConfig_338:
        B.N      ??HAL_RCCEx_PeriphCLKConfig_340
// 2199 
// 2200       default:
// 2201         ret = HAL_ERROR;
??HAL_RCCEx_PeriphCLKConfig_339:
        MOVS     R5,#+1         
// 2202         break;
// 2203     }
// 2204 
// 2205     if (ret == HAL_OK)
??HAL_RCCEx_PeriphCLKConfig_340:
        MOVS     R0,R5          
        UXTB     R0,R0          
        CMP      R0,#+0         
        BNE.N    ??HAL_RCCEx_PeriphCLKConfig_341
// 2206     {
// 2207       /* Configure the SPI5 clock source */
// 2208       __HAL_RCC_SPI5_CONFIG(pPeriphClkInit->Spi5ClockSelection);
        LDR.N    R1,??HAL_RCCEx_PeriphCLKConfig_2
        LDR      R2,[R1, #+0]   
        BICS     R2,R2,#0x7000  
        LDR      R0,[R4, #+236] 
        ORRS     R2,R0,R2       
        STR      R2,[R1, #+0]   
        B.N      ??HAL_RCCEx_PeriphCLKConfig_332
// 2209     }
// 2210     else
// 2211     {
// 2212       /* set overall return value */
// 2213       status = ret;
??HAL_RCCEx_PeriphCLKConfig_341:
        MOVS     R6,R5          
// 2214     }
// 2215 
// 2216   }
// 2217 #endif /* SPI5 */
// 2218 
// 2219 #if defined(SPI6)
// 2220   /*-------------------------- SPI6 clock source configuration ----------------*/
// 2221   if (((pPeriphClkInit->PeriphClockSelection) & RCC_PERIPHCLK_SPI6) == RCC_PERIPHCLK_SPI6)
??HAL_RCCEx_PeriphCLKConfig_332:
        LDRD     R0,R1,[R4, #+0]
        ANDS     R0,R0,#0x0     
        ANDS     R1,R1,#0x1     
        CMP      R1,#+0         
        BNE.N    ??HAL_RCCEx_PeriphCLKConfig_342
        CMP      R0,#+0         
        BEQ.N    ??HAL_RCCEx_PeriphCLKConfig_343
// 2222   {
// 2223     /* Check the parameters */
// 2224     assert_param(IS_RCC_SPI6CLKSOURCE(pPeriphClkInit->Spi6ClockSelection));
// 2225 
// 2226     switch (pPeriphClkInit->Spi6ClockSelection)
??HAL_RCCEx_PeriphCLKConfig_342:
        LDR      R0,[R4, #+240] 
        CMP      R0,#+0         
        BEQ.N    ??HAL_RCCEx_PeriphCLKConfig_344
        CMP      R0,#+32768     
        BEQ.N    ??HAL_RCCEx_PeriphCLKConfig_345
        CMP      R0,#+65536     
        BEQ.N    ??HAL_RCCEx_PeriphCLKConfig_346
        CMP      R0,#+98304     
        BEQ.N    ??HAL_RCCEx_PeriphCLKConfig_347
        CMP      R0,#+131072    
        BEQ.N    ??HAL_RCCEx_PeriphCLKConfig_348
        CMP      R0,#+163840    
        BEQ.N    ??HAL_RCCEx_PeriphCLKConfig_349
        B.N      ??HAL_RCCEx_PeriphCLKConfig_350
// 2227     {
// 2228       case RCC_SPI6CLKSOURCE_PCLK2:  /* PCLK2 (APB2 Clock) is used as clock source for SPI6 */
// 2229         /* SPI6 clock source configuration done later after clock selection check */
// 2230         break;
??HAL_RCCEx_PeriphCLKConfig_344:
        B.N      ??HAL_RCCEx_PeriphCLKConfig_351
// 2231 
// 2232       case RCC_SPI6CLKSOURCE_PLL2Q: /* PLL2 is used as clock source for SPI6*/
// 2233         /* PLL2 Q input clock, parameters M, N & P configuration and clock output (PLL2ClockOut) */
// 2234         ret = RCCEx_PLL2_Config(&(pPeriphClkInit->PLL2));
??HAL_RCCEx_PeriphCLKConfig_345:
        ADDS     R0,R4,#+8      
          CFI FunCall RCCEx_PLL2_Config
        BL       RCCEx_PLL2_Config
        MOVS     R5,R0          
// 2235 
// 2236         /* SPI6 clock source configuration done later after clock selection check */
// 2237         break;
        B.N      ??HAL_RCCEx_PeriphCLKConfig_351
// 2238 
// 2239       case RCC_SPI6CLKSOURCE_PLL3Q:  /* PLL3 is used as clock source for SPI6 */
// 2240         /* PLL3 Q input clock, parameters M, N & P configuration and clock output (PLL3ClockOut) */
// 2241         ret = RCCEx_PLL3_Config(&(pPeriphClkInit->PLL3));
??HAL_RCCEx_PeriphCLKConfig_346:
        ADDS     R0,R4,#+48     
          CFI FunCall RCCEx_PLL3_Config
        BL       RCCEx_PLL3_Config
        MOVS     R5,R0          
// 2242 
// 2243         /* SPI6 clock source configuration done later after clock selection check */
// 2244         break;
        B.N      ??HAL_RCCEx_PeriphCLKConfig_351
// 2245 
// 2246       case RCC_SPI6CLKSOURCE_HSI:
// 2247         /* HSI oscillator is used as source of SPI6 clock*/
// 2248         /* SPI6 clock source configuration done later after clock selection check */
// 2249         break;
??HAL_RCCEx_PeriphCLKConfig_347:
        B.N      ??HAL_RCCEx_PeriphCLKConfig_351
// 2250 
// 2251       case RCC_SPI6CLKSOURCE_CSI:
// 2252         /*  CSI oscillator is used as source of SPI6 clock */
// 2253         /* SPI6 clock source configuration done later after clock selection check */
// 2254         break;
??HAL_RCCEx_PeriphCLKConfig_348:
        B.N      ??HAL_RCCEx_PeriphCLKConfig_351
// 2255 
// 2256       case RCC_SPI6CLKSOURCE_HSE:
// 2257         /*  HSE oscillator is used as source of SPI6 clock */
// 2258         /* SPI6 clock source configuration done later after clock selection check */
// 2259         break;
??HAL_RCCEx_PeriphCLKConfig_349:
        B.N      ??HAL_RCCEx_PeriphCLKConfig_351
// 2260 
// 2261       default:
// 2262         ret = HAL_ERROR;
??HAL_RCCEx_PeriphCLKConfig_350:
        MOVS     R5,#+1         
// 2263         break;
// 2264     }
// 2265 
// 2266     if (ret == HAL_OK)
??HAL_RCCEx_PeriphCLKConfig_351:
        MOVS     R0,R5          
        UXTB     R0,R0          
        CMP      R0,#+0         
        BNE.N    ??HAL_RCCEx_PeriphCLKConfig_352
// 2267     {
// 2268       /* Configure the SPI6 clock source */
// 2269       __HAL_RCC_SPI6_CONFIG(pPeriphClkInit->Spi6ClockSelection);
        LDR.N    R1,??HAL_RCCEx_PeriphCLKConfig_2
        LDR      R2,[R1, #+0]   
        BICS     R2,R2,#0x38000 
        LDR      R0,[R4, #+240] 
        ORRS     R2,R0,R2       
        STR      R2,[R1, #+0]   
        B.N      ??HAL_RCCEx_PeriphCLKConfig_343
// 2270     }
// 2271     else
// 2272     {
// 2273       /* set overall return value */
// 2274       status = ret;
??HAL_RCCEx_PeriphCLKConfig_352:
        MOVS     R6,R5          
// 2275     }
// 2276   }
// 2277 #endif /* SPI6 */
// 2278 
// 2279 #if defined(OCTOSPI1)
// 2280   /*-------------------------- OctoSPIx clock source configuration ----------------*/
// 2281   if (((pPeriphClkInit->PeriphClockSelection) & RCC_PERIPHCLK_OSPI) == RCC_PERIPHCLK_OSPI)
??HAL_RCCEx_PeriphCLKConfig_343:
        LDRD     R0,R1,[R4, #+0]
        ANDS     R0,R0,#0x0     
        ANDS     R1,R1,#0x2     
        CMP      R1,#+0         
        BNE.N    ??HAL_RCCEx_PeriphCLKConfig_353
        CMP      R0,#+0         
        BEQ.N    ??HAL_RCCEx_PeriphCLKConfig_354
// 2282   {  
// 2283     /* Check the parameters */
// 2284     assert_param(IS_RCC_OSPICLKSOURCE(pPeriphClkInit->OspiClockSelection));
// 2285 
// 2286     switch (pPeriphClkInit->OspiClockSelection)
??HAL_RCCEx_PeriphCLKConfig_353:
        LDR      R0,[R4, #+216] 
        CMP      R0,#+0         
        BEQ.N    ??HAL_RCCEx_PeriphCLKConfig_355
        CMP      R0,#+2         
        BEQ.N    ??HAL_RCCEx_PeriphCLKConfig_356
        BCC.N    ??HAL_RCCEx_PeriphCLKConfig_357
        CMP      R0,#+3         
        BEQ.N    ??HAL_RCCEx_PeriphCLKConfig_358
        B.N      ??HAL_RCCEx_PeriphCLKConfig_359
// 2287     {
// 2288       case RCC_OSPICLKSOURCE_HCLK:      /* HCLK is used as clock source for OCTOSPI */
// 2289 
// 2290         /* OCTOSPI clock source config set later after clock selection check */
// 2291         break;
??HAL_RCCEx_PeriphCLKConfig_355:
        B.N      ??HAL_RCCEx_PeriphCLKConfig_360
// 2292 
// 2293       case RCC_OSPICLKSOURCE_PLL1Q:  /* PLL1 Q is used as clock source for OCTOSPI*/
// 2294 
// 2295         /* Enable PLL1 Q CLK output */
// 2296         __HAL_RCC_PLL1_CLKOUT_ENABLE(RCC_PLL1_DIVQ);
??HAL_RCCEx_PeriphCLKConfig_357:
        LDR.W    R0,??DataTable1
        LDR      R1,[R0, #+0]   
        ORRS     R1,R1,#0x20000 
        STR      R1,[R0, #+0]   
// 2297         break;
        B.N      ??HAL_RCCEx_PeriphCLKConfig_360
// 2298 
// 2299       case RCC_OSPICLKSOURCE_PLL2R:  /* PLL2 is used as clock source for OCTOSPI*/
// 2300         /* PLL2 R input clock, parameters M, N & R configuration and clock output (PLL2ClockOut) */
// 2301         ret = RCCEx_PLL2_Config(&(pPeriphClkInit->PLL2));
??HAL_RCCEx_PeriphCLKConfig_356:
        ADDS     R0,R4,#+8      
          CFI FunCall RCCEx_PLL2_Config
        BL       RCCEx_PLL2_Config
        MOVS     R5,R0          
// 2302         /* OCTOSPI clock source config set later after clock selection check */
// 2303         break;
        B.N      ??HAL_RCCEx_PeriphCLKConfig_360
// 2304 
// 2305       case RCC_OSPICLKSOURCE_CLKP:  /* CLKP is used as source of OCTOSPI clock*/
// 2306         /* OCTOSPI clock source config set later after clock selection check */
// 2307         break;
??HAL_RCCEx_PeriphCLKConfig_358:
        B.N      ??HAL_RCCEx_PeriphCLKConfig_360
// 2308 
// 2309       default:
// 2310         ret = HAL_ERROR;
??HAL_RCCEx_PeriphCLKConfig_359:
        MOVS     R5,#+1         
// 2311         break;
// 2312     }
// 2313 
// 2314     if (ret == HAL_OK)
??HAL_RCCEx_PeriphCLKConfig_360:
        MOVS     R0,R5          
        UXTB     R0,R0          
        CMP      R0,#+0         
        BNE.N    ??HAL_RCCEx_PeriphCLKConfig_361
// 2315     {
// 2316       /* Configure the OctoSPI clock source */
// 2317       __HAL_RCC_OSPI_CONFIG(pPeriphClkInit->OspiClockSelection);
        LDR.N    R1,??HAL_RCCEx_PeriphCLKConfig_2+0x4
        LDR      R2,[R1, #+0]   
        LSRS     R2,R2,#+2      
        LSLS     R2,R2,#+2      
        LDR      R0,[R4, #+216] 
        ORRS     R2,R0,R2       
        STR      R2,[R1, #+0]   
        B.N      ??HAL_RCCEx_PeriphCLKConfig_354
        DATA
??HAL_RCCEx_PeriphCLKConfig_2:
        DATA32
        DC32     0x44020ce0     
        DC32     0x44020ce4     
        THUMB
// 2318     }
// 2319     else
// 2320     {
// 2321       /* set overall return value */
// 2322       status = ret;
??HAL_RCCEx_PeriphCLKConfig_361:
        MOVS     R6,R5          
// 2323     }
// 2324     
// 2325   }
// 2326 #endif /* OCTOSPI1*/
// 2327 
// 2328   /*-------------------------- FDCAN kernel clock source configuration -------------*/
// 2329   if (((pPeriphClkInit->PeriphClockSelection) & RCC_PERIPHCLK_FDCAN) == RCC_PERIPHCLK_FDCAN)
??HAL_RCCEx_PeriphCLKConfig_354:
        LDRD     R0,R1,[R4, #+0]
        ANDS     R0,R0,#0x0     
        ANDS     R1,R1,#0x4     
        CMP      R1,#+0         
        BNE.N    ??HAL_RCCEx_PeriphCLKConfig_362
        CMP      R0,#+0         
        BEQ.N    ??HAL_RCCEx_PeriphCLKConfig_363
// 2330   {
// 2331     assert_param(IS_RCC_FDCANCLK(pPeriphClkInit->FdcanClockSelection));
// 2332 
// 2333     switch (pPeriphClkInit->FdcanClockSelection)
??HAL_RCCEx_PeriphCLKConfig_362:
        LDR      R0,[R4, #+188] 
        CMP      R0,#+0         
        BEQ.N    ??HAL_RCCEx_PeriphCLKConfig_364
        CMP      R0,#+256       
        BEQ.N    ??HAL_RCCEx_PeriphCLKConfig_365
        CMP      R0,#+512       
        BEQ.N    ??HAL_RCCEx_PeriphCLKConfig_366
        B.N      ??HAL_RCCEx_PeriphCLKConfig_367
// 2334     {
// 2335       case RCC_FDCANCLKSOURCE_HSE:      /* HSE is used as source of FDCAN kernel clock*/
// 2336         /* FDCAN kernel clock source config set later after clock selection check */
// 2337         break;
??HAL_RCCEx_PeriphCLKConfig_364:
        B.N      ??HAL_RCCEx_PeriphCLKConfig_368
// 2338 
// 2339       case RCC_FDCANCLKSOURCE_PLL1Q:      /* PLL1 is used as clock source for FDCAN kernel clock*/
// 2340         /* Enable PLL1Q Clock output generated from System PLL . */
// 2341         __HAL_RCC_PLL1_CLKOUT_ENABLE(RCC_PLL1_DIVQ);
??HAL_RCCEx_PeriphCLKConfig_365:
        LDR.W    R0,??DataTable1
        LDR      R1,[R0, #+0]   
        ORRS     R1,R1,#0x20000 
        STR      R1,[R0, #+0]   
// 2342         /* FDCAN kernel clock source config set later after clock selection check */
// 2343         break;
        B.N      ??HAL_RCCEx_PeriphCLKConfig_368
// 2344 
// 2345       case RCC_FDCANCLKSOURCE_PLL2Q:  /* PLL2 is used as clock source for FDCAN kernel clock*/
// 2346         /* PLL2Q input clock, parameters M, N & Q configuration and clock output (PLL2ClockOut) */
// 2347         ret = RCCEx_PLL2_Config(&(pPeriphClkInit->PLL2));
??HAL_RCCEx_PeriphCLKConfig_366:
        ADDS     R0,R4,#+8      
          CFI FunCall RCCEx_PLL2_Config
        BL       RCCEx_PLL2_Config
        MOVS     R5,R0          
// 2348         /* FDCAN kernel clock source config set later after clock selection check */
// 2349         break;
        B.N      ??HAL_RCCEx_PeriphCLKConfig_368
// 2350 
// 2351       default:
// 2352         ret = HAL_ERROR;
??HAL_RCCEx_PeriphCLKConfig_367:
        MOVS     R5,#+1         
// 2353         break;
// 2354     }
// 2355 
// 2356     if (ret == HAL_OK)
??HAL_RCCEx_PeriphCLKConfig_368:
        MOVS     R0,R5          
        UXTB     R0,R0          
        CMP      R0,#+0         
        BNE.N    ??HAL_RCCEx_PeriphCLKConfig_369
// 2357     {
// 2358       /* Set the source of FDCAN kernel clock*/
// 2359       __HAL_RCC_FDCAN_CONFIG(pPeriphClkInit->FdcanClockSelection);
        LDR.W    R1,??DataTable2
        LDR      R2,[R1, #+0]   
        BICS     R2,R2,#0x300   
        LDR      R0,[R4, #+188] 
        ORRS     R2,R0,R2       
        STR      R2,[R1, #+0]   
        B.N      ??HAL_RCCEx_PeriphCLKConfig_363
// 2360     }
// 2361     else
// 2362     {
// 2363       /* set overall return value */
// 2364       status = ret;
??HAL_RCCEx_PeriphCLKConfig_369:
        MOVS     R6,R5          
// 2365     }
// 2366   }
// 2367 
// 2368   /*------------------------------ USB Configuration -------------------------*/
// 2369   if (((pPeriphClkInit->PeriphClockSelection) & RCC_PERIPHCLK_USB) == RCC_PERIPHCLK_USB)
??HAL_RCCEx_PeriphCLKConfig_363:
        LDRD     R0,R1,[R4, #+0]
        ANDS     R0,R0,#0x0     
        ANDS     R1,R1,#0x10    
        CMP      R1,#+0         
        BNE.N    ??HAL_RCCEx_PeriphCLKConfig_370
        CMP      R0,#+0         
        BEQ.N    ??HAL_RCCEx_PeriphCLKConfig_371
// 2370   {
// 2371 
// 2372     /* Check the parameters */
// 2373     assert_param(IS_RCC_USBCLKSOURCE(pPeriphClkInit->UsbClockSelection));
// 2374 
// 2375     switch (pPeriphClkInit->UsbClockSelection)
??HAL_RCCEx_PeriphCLKConfig_370:
        LDR      R0,[R4, #+252] 
        CMP      R0,#+16        
        BEQ.N    ??HAL_RCCEx_PeriphCLKConfig_372
        CMP      R0,#+32        
        BEQ.N    ??HAL_RCCEx_PeriphCLKConfig_373
        CMP      R0,#+48        
        BEQ.N    ??HAL_RCCEx_PeriphCLKConfig_374
        B.N      ??HAL_RCCEx_PeriphCLKConfig_375
// 2376     {
// 2377       case RCC_USBCLKSOURCE_PLL1Q:      /* PLL is used as clock source for USB*/
// 2378         /* Enable USB Clock output generated form System USB . */
// 2379         __HAL_RCC_PLL1_CLKOUT_ENABLE(RCC_PLL1_DIVQ);
??HAL_RCCEx_PeriphCLKConfig_372:
        LDR.W    R0,??DataTable1
        LDR      R1,[R0, #+0]   
        ORRS     R1,R1,#0x20000 
        STR      R1,[R0, #+0]   
// 2380 
// 2381         /* USB clock source configuration done later after clock selection check */
// 2382         break;
        B.N      ??HAL_RCCEx_PeriphCLKConfig_376
// 2383 
// 2384 #if defined(RCC_USBCLKSOURCE_PLL3Q)
// 2385       case RCC_USBCLKSOURCE_PLL3Q: /* PLL3 is used as clock source for USB*/
// 2386         /* PLL3Q input clock, parameters M, N & Q configuration and clock output (PLL3ClockOut) */
// 2387         ret = RCCEx_PLL3_Config(&(pPeriphClkInit->PLL3));
??HAL_RCCEx_PeriphCLKConfig_373:
        ADDS     R0,R4,#+48     
          CFI FunCall RCCEx_PLL3_Config
        BL       RCCEx_PLL3_Config
        MOVS     R5,R0          
// 2388 #else
// 2389       case RCC_USBCLKSOURCE_PLL2Q: /* PLL2 is used as clock source for USB*/
// 2390         /* PLL2Q input clock, parameters M, N & Q configuration and clock output (PLL2ClockOut) */
// 2391         ret = RCCEx_PLL2_Config(&(pPeriphClkInit->PLL2));
// 2392 #endif /* RCC_USBCLKSOURCE_PLL3Q */
// 2393         /* USB clock source configuration done later after clock selection check */
// 2394         break;
        B.N      ??HAL_RCCEx_PeriphCLKConfig_376
// 2395 
// 2396       case RCC_USBCLKSOURCE_HSI48:
// 2397         /* HSI48 oscillator is used as source of USB clock */
// 2398         /* USB clock source configuration done later after clock selection check */
// 2399         break;
??HAL_RCCEx_PeriphCLKConfig_374:
        B.N      ??HAL_RCCEx_PeriphCLKConfig_376
// 2400 
// 2401       default:
// 2402         ret = HAL_ERROR;
??HAL_RCCEx_PeriphCLKConfig_375:
        MOVS     R5,#+1         
// 2403         break;
// 2404     }
// 2405 
// 2406     if (ret == HAL_OK)
??HAL_RCCEx_PeriphCLKConfig_376:
        MOVS     R0,R5          
        UXTB     R0,R0          
        CMP      R0,#+0         
        BNE.N    ??HAL_RCCEx_PeriphCLKConfig_377
// 2407     {
// 2408       /* Set the source of USB clock*/
// 2409       __HAL_RCC_USB_CONFIG(pPeriphClkInit->UsbClockSelection);
        LDR.W    R1,??DataTable4_3
        LDR      R2,[R1, #+0]   
        BICS     R2,R2,#0x30    
        LDR      R0,[R4, #+252] 
        ORRS     R2,R0,R2       
        STR      R2,[R1, #+0]   
        B.N      ??HAL_RCCEx_PeriphCLKConfig_371
// 2410     }
// 2411     else
// 2412     {
// 2413       /* set overall return value */
// 2414       status = ret;
??HAL_RCCEx_PeriphCLKConfig_377:
        MOVS     R6,R5          
// 2415     }
// 2416 
// 2417   }
// 2418 
// 2419 #if defined(CEC)
// 2420   /*-------------------------- CEC clock source configuration ----------------*/
// 2421   if (((pPeriphClkInit->PeriphClockSelection) & RCC_PERIPHCLK_CEC) == RCC_PERIPHCLK_CEC)
??HAL_RCCEx_PeriphCLKConfig_371:
        LDRD     R0,R1,[R4, #+0]
        ANDS     R0,R0,#0x0     
        ANDS     R1,R1,#0x8     
        CMP      R1,#+0         
        BNE.N    ??HAL_RCCEx_PeriphCLKConfig_378
        CMP      R0,#+0         
        BEQ.N    ??HAL_RCCEx_PeriphCLKConfig_379
// 2422   {
// 2423 
// 2424     /* Check the parameters */
// 2425     assert_param(IS_RCC_CECCLKSOURCE(pPeriphClkInit->CecClockSelection));
// 2426 
// 2427     /* Configure the CEC clock source */
// 2428     __HAL_RCC_CEC_CONFIG(pPeriphClkInit->CecClockSelection);
??HAL_RCCEx_PeriphCLKConfig_378:
        LDR.W    R1,??DataTable2
        LDR      R2,[R1, #+0]   
        BICS     R2,R2,#0xC0    
        LDR      R0,[R4, #+248] 
        ORRS     R2,R0,R2       
        STR      R2,[R1, #+0]   
// 2429 
// 2430   }
// 2431 #endif /* CEC */
// 2432   GPIO_Debug(10);
??HAL_RCCEx_PeriphCLKConfig_379:
        MOVS     R0,#+10        
          CFI FunCall GPIO_Debug
        BL       GPIO_Debug     
// 2433   return status;
        MOVS     R0,R6          
        UXTB     R0,R0          
        POP      {R4-R8,PC}     
// 2434 }
          CFI EndBlock cfiBlock0

        SECTION `.text`:CODE:NOROOT(2)
        SECTION_TYPE SHT_PROGBITS, 0
        DATA
??DataTable0:
        DATA32
        DC32     0x44020c1c     
// 2435 
// 2436 
// 2437 
// 2438 /**
// 2439   * @brief  Get the pPeriphClkInit according to the internal RCC configuration registers.
// 2440   * @param  pPeriphClkInit  pointer to an RCC_PeriphCLKInitTypeDef structure that
// 2441   *         returns the configuration information for the Extended Peripherals
// 2442   *         clocks (ADC12, DAC, SDMMC1, SDMMC2, OCTOSPI1, TIM, LPTIM1, LPTIM2, LPTIM3, LPTIM4, LPTIM5, LPTIM6,
// 2443   *         SPI1, SPI2, SPI3, SPI4, SPI5, SPI6, USART1, USART2, USART3, UART4, UART5, USART6, UART7, UART8,
// 2444   *         UART9, USART10, USART11, UART12, LPUART1, I2C1, I2C2, I2C3, I2C4, I3C1, I3C2, CEC, FDCAN, SAI1,
// 2445   *         SAI2, USB,), PLL2 and PLL3.
// 2446   * @retval None
// 2447   */

        SECTION `.text`:CODE:NOROOT(1)
          CFI Block cfiBlock1 Using cfiCommon0
          CFI Function HAL_RCCEx_GetPeriphCLKConfig
          CFI NoCalls
        THUMB
// 2448 void HAL_RCCEx_GetPeriphCLKConfig(RCC_PeriphCLKInitTypeDef  *pPeriphClkInit)
// 2449 {
HAL_RCCEx_GetPeriphCLKConfig:
        PUSH     {R4}           
          CFI R4 Frame(CFA, -4)
          CFI CFA R13+4
// 2450   /* Set all possible values for the extended clock type parameter------------*/
// 2451   pPeriphClkInit->PeriphClockSelection = RCC_PERIPHCLK_USART1 | RCC_PERIPHCLK_USART2 | RCC_PERIPHCLK_USART3  | \ 
// 2452                                          RCC_PERIPHCLK_LPUART1 | RCC_PERIPHCLK_I2C1 | RCC_PERIPHCLK_I2C2     | \ 
// 2453                                          RCC_PERIPHCLK_LPTIM1 | RCC_PERIPHCLK_LPTIM2 | RCC_PERIPHCLK_ADCDAC  | \ 
// 2454                                          RCC_PERIPHCLK_DAC_LP | RCC_PERIPHCLK_RTC  | RCC_PERIPHCLK_RNG | \ 
// 2455                                          RCC_PERIPHCLK_I3C1 | RCC_PERIPHCLK_SPI1 | RCC_PERIPHCLK_SPI2 | \ 
// 2456                                          RCC_PERIPHCLK_SPI3 | RCC_PERIPHCLK_CKPER | RCC_PERIPHCLK_USB;
        LDR.W    R2,??DataTable4_4
        MOV      R3,#+528       
        STRD     R2,R3,[R0, #+0]
// 2457 
// 2458 #if defined(UART4)
// 2459   pPeriphClkInit->PeriphClockSelection |= RCC_PERIPHCLK_UART4;
        LDRD     R2,R3,[R0, #+0]
        ORRS     R2,R2,#0x8     
        ORRS     R3,R3,#0x0     
        STRD     R2,R3,[R0, #+0]
// 2460 #endif /* UART4 */
// 2461 #if defined(UART5)
// 2462   pPeriphClkInit->PeriphClockSelection |= RCC_PERIPHCLK_UART5;
        LDRD     R2,R3,[R0, #+0]
        ORRS     R2,R2,#0x10    
        ORRS     R3,R3,#0x0     
        STRD     R2,R3,[R0, #+0]
// 2463 #endif /* UART5 */
// 2464 #if defined(USART6)
// 2465   pPeriphClkInit->PeriphClockSelection |= RCC_PERIPHCLK_USART6;
        LDRD     R2,R3,[R0, #+0]
        ORRS     R2,R2,#0x20    
        ORRS     R3,R3,#0x0     
        STRD     R2,R3,[R0, #+0]
// 2466 #endif /* UART6 */
// 2467 #if defined(UART7)
// 2468   pPeriphClkInit->PeriphClockSelection |= RCC_PERIPHCLK_UART7;
        LDRD     R2,R3,[R0, #+0]
        ORRS     R2,R2,#0x40    
        ORRS     R3,R3,#0x0     
        STRD     R2,R3,[R0, #+0]
// 2469 #endif /* UART7 */
// 2470 #if defined(UART8)
// 2471   pPeriphClkInit->PeriphClockSelection |= RCC_PERIPHCLK_UART8;
        LDRD     R2,R3,[R0, #+0]
        ORRS     R2,R2,#0x80    
        ORRS     R3,R3,#0x0     
        STRD     R2,R3,[R0, #+0]
// 2472 #endif /* UART8 */
// 2473 #if defined(UART9)
// 2474   pPeriphClkInit->PeriphClockSelection |= RCC_PERIPHCLK_UART9;
        LDRD     R2,R3,[R0, #+0]
        ORRS     R2,R2,#0x100   
        ORRS     R3,R3,#0x0     
        STRD     R2,R3,[R0, #+0]
// 2475 #endif /* UART9 */
// 2476 #if defined(USART10)
// 2477   pPeriphClkInit->PeriphClockSelection |= RCC_PERIPHCLK_USART10;
        LDRD     R2,R3,[R0, #+0]
        ORRS     R2,R2,#0x200   
        ORRS     R3,R3,#0x0     
        STRD     R2,R3,[R0, #+0]
// 2478 #endif /* UART10 */
// 2479 #if defined(USART11)
// 2480   pPeriphClkInit->PeriphClockSelection |= RCC_PERIPHCLK_USART11;
        LDRD     R2,R3,[R0, #+0]
        ORRS     R2,R2,#0x400   
        ORRS     R3,R3,#0x0     
        STRD     R2,R3,[R0, #+0]
// 2481 #endif /* UART11 */
// 2482 #if defined(UART12)
// 2483   pPeriphClkInit->PeriphClockSelection |= RCC_PERIPHCLK_UART12;
        LDRD     R2,R3,[R0, #+0]
        ORRS     R2,R2,#0x800   
        ORRS     R3,R3,#0x0     
        STRD     R2,R3,[R0, #+0]
// 2484 #endif /* UART12 */
// 2485 #if defined(I2C3)
// 2486   pPeriphClkInit->PeriphClockSelection |= RCC_PERIPHCLK_I2C3;
        LDRD     R2,R3,[R0, #+0]
        ORRS     R2,R2,#0x8000  
        ORRS     R3,R3,#0x0     
        STRD     R2,R3,[R0, #+0]
// 2487 #endif /* I2C3 */
// 2488 #if defined(I2C4)
// 2489   pPeriphClkInit->PeriphClockSelection |= RCC_PERIPHCLK_I2C4;
        LDRD     R2,R3,[R0, #+0]
        ORRS     R2,R2,#0x0     
        ORRS     R3,R3,#0x400   
        STRD     R2,R3,[R0, #+0]
// 2490 #endif /* I2C4 */
// 2491 #if defined(I3C2)
// 2492   pPeriphClkInit->PeriphClockSelection |= RCC_PERIPHCLK_I3C2;
// 2493 #endif /* I3C2 */
// 2494 #if defined(LPTIM3)
// 2495   pPeriphClkInit->PeriphClockSelection |= RCC_PERIPHCLK_LPTIM3;
        LDRD     R2,R3,[R0, #+0]
        ORRS     R2,R2,#0x0     
        ORRS     R3,R3,#0x20    
        STRD     R2,R3,[R0, #+0]
// 2496 #endif /* LPTIM3 */
// 2497 #if defined(LPTIM4)
// 2498   pPeriphClkInit->PeriphClockSelection |= RCC_PERIPHCLK_LPTIM4;
        LDRD     R2,R3,[R0, #+0]
        ORRS     R2,R2,#0x0     
        ORRS     R3,R3,#0x40    
        STRD     R2,R3,[R0, #+0]
// 2499 #endif /* LPTIM4 */
// 2500 #if defined(LPTIM5)
// 2501   pPeriphClkInit->PeriphClockSelection |= RCC_PERIPHCLK_LPTIM5;
        LDRD     R2,R3,[R0, #+0]
        ORRS     R2,R2,#0x0     
        ORRS     R3,R3,#0x80    
        STRD     R2,R3,[R0, #+0]
// 2502 #endif /* LPTIM5 */
// 2503 #if defined(LPTIM6)
// 2504   pPeriphClkInit->PeriphClockSelection |= RCC_PERIPHCLK_LPTIM6;
        LDRD     R2,R3,[R0, #+0]
        ORRS     R2,R2,#0x0     
        ORRS     R3,R3,#0x100   
        STRD     R2,R3,[R0, #+0]
// 2505 #endif /* LPTIM6 */
// 2506 #if defined(SPI4)
// 2507   pPeriphClkInit->PeriphClockSelection |= RCC_PERIPHCLK_SPI4;
        LDRD     R2,R3,[R0, #+0]
        ORRS     R2,R2,#0x40000000
        ORRS     R3,R3,#0x0     
        STRD     R2,R3,[R0, #+0]
// 2508 #endif /* SPI4 */
// 2509 #if defined(SPI5)
// 2510   pPeriphClkInit->PeriphClockSelection |= RCC_PERIPHCLK_SPI5;
        LDRD     R2,R3,[R0, #+0]
        ORRS     R2,R2,#0x80000000
        ORRS     R3,R3,#0x0     
        STRD     R2,R3,[R0, #+0]
// 2511 #endif /* SPI5 */
// 2512 #if defined(SPI6)
// 2513   pPeriphClkInit->PeriphClockSelection |= RCC_PERIPHCLK_SPI6;
        LDRD     R2,R3,[R0, #+0]
        ORRS     R2,R2,#0x0     
        ORRS     R3,R3,#0x1     
        STRD     R2,R3,[R0, #+0]
// 2514 #endif /* SPI6 */
// 2515 #if defined(SAI1)
// 2516   pPeriphClkInit->PeriphClockSelection |= RCC_PERIPHCLK_SAI1;
        LDRD     R2,R3,[R0, #+0]
        ORRS     R2,R2,#0x80000 
        ORRS     R3,R3,#0x0     
        STRD     R2,R3,[R0, #+0]
// 2517 #endif /* SAI1 */
// 2518 #if defined(SAI2)
// 2519   pPeriphClkInit->PeriphClockSelection |= RCC_PERIPHCLK_SAI2;
        LDRD     R2,R3,[R0, #+0]
        ORRS     R2,R2,#0x100000
        ORRS     R3,R3,#0x0     
        STRD     R2,R3,[R0, #+0]
// 2520 #endif /* SAI2 */
// 2521   pPeriphClkInit->PeriphClockSelection |= RCC_PERIPHCLK_FDCAN;
        LDRD     R2,R3,[R0, #+0]
        ORRS     R2,R2,#0x0     
        ORRS     R3,R3,#0x4     
        STRD     R2,R3,[R0, #+0]
// 2522 #if defined(SDMMC1)
// 2523   pPeriphClkInit->PeriphClockSelection |= RCC_PERIPHCLK_SDMMC1;
        LDRD     R2,R3,[R0, #+0]
        ORRS     R2,R2,#0x400000
        ORRS     R3,R3,#0x0     
        STRD     R2,R3,[R0, #+0]
// 2524 #endif /* SDMMC1*/
// 2525 #if defined(SDMMC2)
// 2526   pPeriphClkInit->PeriphClockSelection |= RCC_PERIPHCLK_SDMMC2;
// 2527 #endif /* SDMMC2*/
// 2528 #if defined(OCTOSPI1)
// 2529   pPeriphClkInit->PeriphClockSelection |= RCC_PERIPHCLK_OSPI;
        LDRD     R2,R3,[R0, #+0]
        ORRS     R2,R2,#0x0     
        ORRS     R3,R3,#0x2     
        STRD     R2,R3,[R0, #+0]
// 2530 #endif /* OCTOSPI1 */
// 2531 #if defined(CEC)
// 2532   pPeriphClkInit->PeriphClockSelection |= RCC_PERIPHCLK_CEC;
        LDRD     R2,R3,[R0, #+0]
        ORRS     R2,R2,#0x0     
        ORRS     R3,R3,#0x8     
        STRD     R2,R3,[R0, #+0]
// 2533 #endif /* CEC */
// 2534 
// 2535   /* Get the PLL2 Clock configuration -----------------------------------------------*/
// 2536   pPeriphClkInit->PLL2.PLL2Source = (uint32_t)((RCC->PLL2CFGR & RCC_PLL2CFGR_PLL2SRC) >> RCC_PLL2CFGR_PLL2SRC_Pos);
        LDR.W    R1,??DataTable4_5
        LDR      R2,[R1, #+0]   
        ANDS     R2,R2,#0x3     
        STR      R2,[R0, #+8]   
// 2537   pPeriphClkInit->PLL2.PLL2M = (uint32_t)((RCC->PLL2CFGR & RCC_PLL2CFGR_PLL2M) >> RCC_PLL2CFGR_PLL2M_Pos);
        LDR      R2,[R1, #+0]   
        UBFX     R2,R2,#+8,#+6  
        STR      R2,[R0, #+12]  
// 2538   pPeriphClkInit->PLL2.PLL2N = (uint32_t)((RCC->PLL2DIVR & RCC_PLL2DIVR_PLL2N) >> RCC_PLL2DIVR_PLL2N_Pos) + 1U;
        LDR.W    R2,??DataTable4_6
        LDR      R3,[R2, #+0]   
        LSLS     R3,R3,#+23     
        LSRS     R3,R3,#+23     
        ADDS     R3,R3,#+1      
        STR      R3,[R0, #+16]  
// 2539   pPeriphClkInit->PLL2.PLL2P = (uint32_t)((RCC->PLL2DIVR & RCC_PLL2DIVR_PLL2P) >> RCC_PLL2DIVR_PLL2P_Pos) + 1U;
        LDR      R3,[R2, #+0]   
        UBFX     R3,R3,#+9,#+7  
        ADDS     R3,R3,#+1      
        STR      R3,[R0, #+20]  
// 2540   pPeriphClkInit->PLL2.PLL2Q = (uint32_t)((RCC->PLL2DIVR & RCC_PLL2DIVR_PLL2Q) >> RCC_PLL2DIVR_PLL2Q_Pos) + 1U;
        LDR      R3,[R2, #+0]   
        UBFX     R3,R3,#+16,#+7 
        ADDS     R3,R3,#+1      
        STR      R3,[R0, #+24]  
// 2541   pPeriphClkInit->PLL2.PLL2R = (uint32_t)((RCC->PLL2DIVR & RCC_PLL2DIVR_PLL2R) >> RCC_PLL2DIVR_PLL2R_Pos) + 1U;
        LDR      R2,[R2, #+0]   
        UBFX     R2,R2,#+24,#+7 
        ADDS     R2,R2,#+1      
        STR      R2,[R0, #+28]  
// 2542   pPeriphClkInit->PLL2.PLL2RGE = (uint32_t)((RCC->PLL2CFGR & RCC_PLL2CFGR_PLL2RGE) >> RCC_PLL2CFGR_PLL2RGE_Pos);
        LDR      R1,[R1, #+0]   
        UBFX     R1,R1,#+2,#+2  
        STR      R1,[R0, #+32]  
// 2543   pPeriphClkInit->PLL2.PLL2FRACN = (uint32_t)((RCC->PLL2FRACR & RCC_PLL2FRACR_PLL2FRACN) >> \ 
// 2544                                               RCC_PLL2FRACR_PLL2FRACN_Pos);
        LDR.W    R1,??DataTable4_7
        LDR      R1,[R1, #+0]   
        UBFX     R1,R1,#+3,#+13 
        STR      R1,[R0, #+40]  
// 2545 
// 2546 #if defined(RCC_CR_PLL3ON)
// 2547   /* Get the PLL3 Clock configuration -----------------------------------------------*/
// 2548   pPeriphClkInit->PLL3.PLL3Source = (uint32_t)((RCC->PLL3CFGR & RCC_PLL3CFGR_PLL3SRC) >> RCC_PLL3CFGR_PLL3SRC_Pos);
        LDR.W    R1,??DataTable4_8
        LDR      R2,[R1, #+0]   
        ANDS     R2,R2,#0x3     
        STR      R2,[R0, #+48]  
// 2549   pPeriphClkInit->PLL3.PLL3M = (uint32_t)((RCC->PLL3CFGR & RCC_PLL3CFGR_PLL3M) >> RCC_PLL3CFGR_PLL3M_Pos);
        LDR      R2,[R1, #+0]   
        UBFX     R2,R2,#+8,#+6  
        STR      R2,[R0, #+52]  
// 2550   pPeriphClkInit->PLL3.PLL3N = (uint32_t)((RCC->PLL3DIVR & RCC_PLL3DIVR_PLL3N) >> RCC_PLL3DIVR_PLL3N_Pos) + 1U;
        LDR.W    R2,??DataTable4_9
        LDR      R3,[R2, #+0]   
        LSLS     R3,R3,#+23     
        LSRS     R3,R3,#+23     
        ADDS     R3,R3,#+1      
        STR      R3,[R0, #+56]  
// 2551   pPeriphClkInit->PLL3.PLL3P = (uint32_t)((RCC->PLL3DIVR & RCC_PLL3DIVR_PLL3P) >> RCC_PLL3DIVR_PLL3P_Pos) + 1U;
        LDR      R3,[R2, #+0]   
        UBFX     R3,R3,#+9,#+7  
        ADDS     R3,R3,#+1      
        STR      R3,[R0, #+60]  
// 2552   pPeriphClkInit->PLL3.PLL3Q = (uint32_t)((RCC->PLL3DIVR & RCC_PLL3DIVR_PLL3Q) >> RCC_PLL3DIVR_PLL3Q_Pos) + 1U;
        LDR      R3,[R2, #+0]   
        UBFX     R3,R3,#+16,#+7 
        ADDS     R3,R3,#+1      
        STR      R3,[R0, #+64]  
// 2553   pPeriphClkInit->PLL3.PLL3R = (uint32_t)((RCC->PLL3DIVR & RCC_PLL3DIVR_PLL3R) >> RCC_PLL3DIVR_PLL3R_Pos) + 1U;
        LDR      R2,[R2, #+0]   
        UBFX     R2,R2,#+24,#+7 
        ADDS     R2,R2,#+1      
        STR      R2,[R0, #+68]  
// 2554   pPeriphClkInit->PLL3.PLL3RGE = (uint32_t)((RCC->PLL3CFGR & RCC_PLL3CFGR_PLL3RGE) >> RCC_PLL3CFGR_PLL3RGE_Pos);
        LDR      R1,[R1, #+0]   
        UBFX     R1,R1,#+2,#+2  
        STR      R1,[R0, #+72]  
// 2555   pPeriphClkInit->PLL3.PLL3FRACN = (uint32_t)((RCC->PLL3FRACR & RCC_PLL3FRACR_PLL3FRACN) >> \ 
// 2556                                               RCC_PLL3FRACR_PLL3FRACN_Pos);
        LDR.W    R1,??DataTable4_10
        LDR      R1,[R1, #+0]   
        UBFX     R1,R1,#+3,#+13 
        STR      R1,[R0, #+80]  
// 2557 #endif /* RCC_CR_PLL3ON */
// 2558 
// 2559   /* Get the USART1 clock source ---------------------------------------------*/
// 2560   pPeriphClkInit->Usart1ClockSelection = __HAL_RCC_GET_USART1_SOURCE();
        LDR.W    R1,??DataTable4_11
        LDR      R2,[R1, #+0]   
        ANDS     R2,R2,#0x7     
        STR      R2,[R0, #+92]  
// 2561 
// 2562   /* Get the USART2 clock source ---------------------------------------------*/
// 2563   pPeriphClkInit->Usart2ClockSelection = __HAL_RCC_GET_USART2_SOURCE();
        LDR      R2,[R1, #+0]   
        ANDS     R2,R2,#0x38    
        STR      R2,[R0, #+96]  
// 2564 
// 2565   /* Get the USART3 clock source ---------------------------------------------*/
// 2566   pPeriphClkInit->Usart3ClockSelection = __HAL_RCC_GET_USART3_SOURCE();
        LDR      R2,[R1, #+0]   
        ANDS     R2,R2,#0x1C0   
        STR      R2,[R0, #+100] 
// 2567 
// 2568 #if defined(UART4)
// 2569   /* Get the UART4 clock source ----------------------------------------------*/
// 2570   pPeriphClkInit->Uart4ClockSelection = __HAL_RCC_GET_UART4_SOURCE();
        LDR      R2,[R1, #+0]   
        ANDS     R2,R2,#0xE00   
        STR      R2,[R0, #+104] 
// 2571 #endif /* UART4 */
// 2572 
// 2573 #if defined(UART5)
// 2574   /* Get the UART5 clock source ----------------------------------------------*/
// 2575   pPeriphClkInit->Uart5ClockSelection = __HAL_RCC_GET_UART5_SOURCE();
        LDR      R2,[R1, #+0]   
        ANDS     R2,R2,#0x7000  
        STR      R2,[R0, #+108] 
// 2576 #endif /* UART5 */
// 2577 
// 2578 #if defined(USART6)
// 2579   /* Get the USART6 clock source ---------------------------------------------*/
// 2580   pPeriphClkInit->Usart6ClockSelection = __HAL_RCC_GET_USART6_SOURCE();
        LDR      R2,[R1, #+0]   
        ANDS     R2,R2,#0x38000 
        STR      R2,[R0, #+112] 
// 2581 #endif /* USART6 */
// 2582 
// 2583 #if defined(UART7)
// 2584   /* Get the UART7 clock source ---------------------------------------------*/
// 2585   pPeriphClkInit->Uart7ClockSelection = __HAL_RCC_GET_UART7_SOURCE();
        LDR      R2,[R1, #+0]   
        ANDS     R2,R2,#0x1C0000
        STR      R2,[R0, #+116] 
// 2586 #endif /* UART7 */
// 2587 
// 2588 #if defined(UART8)
// 2589   /* Get the UART8 clock source ---------------------------------------------*/
// 2590   pPeriphClkInit->Uart8ClockSelection = __HAL_RCC_GET_UART8_SOURCE();
        LDR      R2,[R1, #+0]   
        ANDS     R2,R2,#0xE00000
        STR      R2,[R0, #+120] 
// 2591 #endif /* UART8 */
// 2592 
// 2593 #if defined(UART9)
// 2594   /* Get the UART9 clock source ---------------------------------------------*/
// 2595   pPeriphClkInit->Uart9ClockSelection = __HAL_RCC_GET_UART9_SOURCE();
        LDR      R2,[R1, #+0]   
        ANDS     R2,R2,#0x7000000
        STR      R2,[R0, #+124] 
// 2596 #endif /* UART9 */
// 2597 
// 2598 #if defined(USART10)
// 2599   /* Get the USART10 clock source ---------------------------------------------*/
// 2600   pPeriphClkInit->Usart10ClockSelection = __HAL_RCC_GET_USART10_SOURCE();
        LDR      R1,[R1, #+0]   
        ANDS     R1,R1,#0x38000000
        STR      R1,[R0, #+128] 
// 2601 #endif /* USART10 */
// 2602 
// 2603 #if defined(USART11)
// 2604   /* Get the USART11 clock source ---------------------------------------------*/
// 2605   pPeriphClkInit->Usart11ClockSelection = __HAL_RCC_GET_USART11_SOURCE();
        LDR.W    R1,??DataTable4_12
        LDR      R2,[R1, #+0]   
        ANDS     R2,R2,#0x7     
        STR      R2,[R0, #+132] 
// 2606 #endif /* USART11 */
// 2607 
// 2608 #if defined(UART12)
// 2609   /* Get the UART12 clock source ---------------------------------------------*/
// 2610   pPeriphClkInit->Uart12ClockSelection = __HAL_RCC_GET_UART12_SOURCE();
        LDR      R2,[R1, #+0]   
        ANDS     R2,R2,#0x70    
        STR      R2,[R0, #+136] 
// 2611 #endif /* UART12 */
// 2612 
// 2613   /* Get the LPUART1 clock source --------------------------------------------*/
// 2614   pPeriphClkInit->Lpuart1ClockSelection = __HAL_RCC_GET_LPUART1_SOURCE();
        LDR.W    R2,??DataTable4_13
        LDR      R3,[R2, #+0]   
        ANDS     R3,R3,#0x7000000
        STR      R3,[R0, #+140] 
// 2615 
// 2616   /* Get the I2C1 clock source -----------------------------------------------*/
// 2617   pPeriphClkInit->I2c1ClockSelection = __HAL_RCC_GET_I2C1_SOURCE();
        LDR.W    R3,??DataTable4_3
        LDR      R4,[R3, #+0]   
        ANDS     R4,R4,#0x30000 
        STR      R4,[R0, #+144] 
// 2618 
// 2619   /* Get the I2C2 clock source -----------------------------------------------*/
// 2620   pPeriphClkInit->I2c2ClockSelection = __HAL_RCC_GET_I2C2_SOURCE();
        LDR      R4,[R3, #+0]   
        ANDS     R4,R4,#0xC0000 
        STR      R4,[R0, #+148] 
// 2621 
// 2622 #if defined(I2C3)
// 2623   /* Get the I2C3 clock source -----------------------------------------------*/
// 2624   pPeriphClkInit->I2c3ClockSelection = __HAL_RCC_GET_I2C3_SOURCE();
        LDR      R4,[R3, #+0]   
        ANDS     R4,R4,#0x300000
        STR      R4,[R0, #+152] 
// 2625 #endif /* I2C3 */
// 2626 
// 2627 #if defined(I2C4)
// 2628   /* Get the I2C4 clock source -----------------------------------------------*/
// 2629   pPeriphClkInit->I2c4ClockSelection = __HAL_RCC_GET_I2C4_SOURCE();
        LDR      R4,[R3, #+0]   
        ANDS     R4,R4,#0xC00000
        STR      R4,[R0, #+156] 
// 2630 #endif /* I2C4 */
// 2631 
// 2632   /* Get the I3C1 clock source -----------------------------------------------*/
// 2633   pPeriphClkInit->I3c1ClockSelection = __HAL_RCC_GET_I3C1_SOURCE();
        LDR      R4,[R3, #+0]   
        ANDS     R4,R4,#0x3000000
        STR      R4,[R0, #+160] 
// 2634 
// 2635 #if defined(I3C2)
// 2636   /* Get the I3C2 clock source -----------------------------------------------*/
// 2637   pPeriphClkInit->I3c2ClockSelection = __HAL_RCC_GET_I3C2_SOURCE();
// 2638 #endif /* I3C2 */
// 2639 
// 2640   /* Get the LPTIM1 clock source ---------------------------------------------*/
// 2641   pPeriphClkInit->Lptim1ClockSelection = __HAL_RCC_GET_LPTIM1_SOURCE();
        LDR      R4,[R1, #+0]   
        ANDS     R4,R4,#0x700   
        STR      R4,[R0, #+164] 
// 2642 
// 2643   /* Get the LPTIM2 clock source ---------------------------------------------*/
// 2644   pPeriphClkInit->Lptim2ClockSelection = __HAL_RCC_GET_LPTIM2_SOURCE();
        LDR      R4,[R1, #+0]   
        ANDS     R4,R4,#0x7000  
        STR      R4,[R0, #+168] 
// 2645 
// 2646 #if defined(LPTIM3)
// 2647   /* Get the LPTIM3 clock source ---------------------------------------------*/
// 2648   pPeriphClkInit->Lptim3ClockSelection = __HAL_RCC_GET_LPTIM3_SOURCE();
        LDR      R4,[R1, #+0]   
        ANDS     R4,R4,#0x70000 
        STR      R4,[R0, #+172] 
// 2649 #endif /* LPTIM3 */
// 2650 
// 2651 #if defined(LPTIM4)
// 2652   /* Get the LPTIM4 clock source ---------------------------------------------*/
// 2653   pPeriphClkInit->Lptim4ClockSelection = __HAL_RCC_GET_LPTIM4_SOURCE();
        LDR      R4,[R1, #+0]   
        ANDS     R4,R4,#0x700000
        STR      R4,[R0, #+176] 
// 2654 #endif /* LPTIM4 */
// 2655 
// 2656 #if defined(LPTIM5)
// 2657   /* Get the LPTIM5 clock source ---------------------------------------------*/
// 2658   pPeriphClkInit->Lptim5ClockSelection = __HAL_RCC_GET_LPTIM5_SOURCE();
        LDR      R4,[R1, #+0]   
        ANDS     R4,R4,#0x7000000
        STR      R4,[R0, #+180] 
// 2659 #endif /* LPTIM5 */
// 2660 
// 2661 #if defined(LPTIM6)
// 2662   /* Get the LPTIM6 clock source ---------------------------------------------*/
// 2663   pPeriphClkInit->Lptim6ClockSelection = __HAL_RCC_GET_LPTIM6_SOURCE();
        LDR      R1,[R1, #+0]   
        ANDS     R1,R1,#0x70000000
        STR      R1,[R0, #+184] 
// 2664 #endif /* LPTIM6 */
// 2665 
// 2666   /* Get the FDCAN clock source ---------------------------------------------*/
// 2667   pPeriphClkInit->FdcanClockSelection = __HAL_RCC_GET_FDCAN_SOURCE();
        LDR.N    R1,??DataTable2
        LDR      R4,[R1, #+0]   
        ANDS     R4,R4,#0x300   
        STR      R4,[R0, #+188] 
// 2668 
// 2669 #if defined(SAI1)
// 2670   /* Get the SAI1 clock source -----------------------------------------------*/
// 2671   pPeriphClkInit->Sai1ClockSelection = __HAL_RCC_GET_SAI1_SOURCE();
        LDR      R4,[R1, #+0]   
        ANDS     R4,R4,#0x70000 
        STR      R4,[R0, #+192] 
// 2672 #endif /* SAI1 */
// 2673 
// 2674 #if defined(SAI2)
// 2675   /* Get the SAI2 clock source -----------------------------------------------*/
// 2676   pPeriphClkInit->Sai2ClockSelection = __HAL_RCC_GET_SAI2_SOURCE();
        LDR      R4,[R1, #+0]   
        ANDS     R4,R4,#0x380000
        STR      R4,[R0, #+196] 
// 2677 #endif /* SAI2 */
// 2678 
// 2679 #if defined(SDMMC1)
// 2680   /* Get the SDMMC1 clock source ----------------------------------------------*/
// 2681   pPeriphClkInit->Sdmmc1ClockSelection = __HAL_RCC_GET_SDMMC1_SOURCE();
        LDR      R4,[R3, #+0]   
        ANDS     R4,R4,#0x40    
        STR      R4,[R0, #+204] 
// 2682 #endif /* SDMMC1 */
// 2683 
// 2684 #if defined(SDMMC2)
// 2685   /* Get the SDMMC2 clock source ----------------------------------------------*/
// 2686   pPeriphClkInit->Sdmmc2ClockSelection = __HAL_RCC_GET_SDMMC2_SOURCE();
// 2687 #endif /* SDMMC2 */
// 2688 
// 2689   /* Get the ADCDAC clock source ---------------------------------------------*/
// 2690   pPeriphClkInit->AdcDacClockSelection = __HAL_RCC_GET_ADCDAC_SOURCE();
        LDR      R4,[R1, #+0]   
        ANDS     R4,R4,#0x7     
        STR      R4,[R0, #+208] 
// 2691 
// 2692   /* Get the DAC low-power clock source ---------------------------------------------*/
// 2693   pPeriphClkInit->DacLowPowerClockSelection = __HAL_RCC_GET_DAC_LP_SOURCE();
        LDR      R4,[R1, #+0]   
        ANDS     R4,R4,#0x8     
        STR      R4,[R0, #+212] 
// 2694 
// 2695 #if defined(OCTOSPI1)
// 2696   /* Get the OSPI clock source -----------------------------------------------*/
// 2697   pPeriphClkInit->OspiClockSelection = __HAL_RCC_GET_OSPI_SOURCE();
        LDR      R4,[R3, #+0]   
        ANDS     R4,R4,#0x3     
        STR      R4,[R0, #+216] 
// 2698 #endif /* OCTOSPI1 */
// 2699 
// 2700   /* Get the SPI1 clock source -----------------------------------------------*/
// 2701   pPeriphClkInit->Spi1ClockSelection = __HAL_RCC_GET_SPI1_SOURCE();
        LDR      R4,[R2, #+0]   
        ANDS     R4,R4,#0x7     
        STR      R4,[R0, #+220] 
// 2702 
// 2703   /* Get the SPI2 clock source -----------------------------------------------*/
// 2704   pPeriphClkInit->Spi2ClockSelection = __HAL_RCC_GET_SPI2_SOURCE();
        LDR      R4,[R2, #+0]   
        ANDS     R4,R4,#0x38    
        STR      R4,[R0, #+224] 
// 2705 
// 2706   /* Get the SPI3 clock source -----------------------------------------------*/
// 2707   pPeriphClkInit->Spi3ClockSelection = __HAL_RCC_GET_SPI3_SOURCE();
        LDR      R4,[R2, #+0]   
        ANDS     R4,R4,#0x1C0   
        STR      R4,[R0, #+228] 
// 2708 
// 2709 #if defined(SPI4)
// 2710   /* Get the SPI4 clock source -----------------------------------------------*/
// 2711   pPeriphClkInit->Spi4ClockSelection = __HAL_RCC_GET_SPI4_SOURCE();
        LDR      R4,[R2, #+0]   
        ANDS     R4,R4,#0xE00   
        STR      R4,[R0, #+232] 
// 2712 #endif /* SPI4 */
// 2713 
// 2714 #if defined(SPI5)
// 2715   /* Get the SPI5 clock source -----------------------------------------------*/
// 2716   pPeriphClkInit->Spi5ClockSelection = __HAL_RCC_GET_SPI5_SOURCE();
        LDR      R4,[R2, #+0]   
        ANDS     R4,R4,#0x7000  
        STR      R4,[R0, #+236] 
// 2717 #endif /* SPI5 */
// 2718 
// 2719 #if defined(SPI6)
// 2720   /* Get the SPI6 clock source -----------------------------------------------*/
// 2721   pPeriphClkInit->Spi6ClockSelection = __HAL_RCC_GET_SPI6_SOURCE();
        LDR      R2,[R2, #+0]   
        ANDS     R2,R2,#0x38000 
        STR      R2,[R0, #+240] 
// 2722 #endif /* SPI6 */
// 2723 
// 2724   /* Get the RTC clock source ------------------------------------------------*/
// 2725   pPeriphClkInit->RTCClockSelection = __HAL_RCC_GET_RTC_SOURCE();
        LDR.N    R2,??DataTable2_2
        LDR      R2,[R2, #+0]   
        ANDS     R2,R2,#0x300   
        STR      R2,[R0, #+244] 
// 2726 
// 2727   /* Get the RNG clock source ------------------------------------------------*/
// 2728   pPeriphClkInit->RngClockSelection = __HAL_RCC_GET_RNG_SOURCE();
        LDR      R2,[R1, #+0]   
        ANDS     R2,R2,#0x30    
        STR      R2,[R0, #+200] 
// 2729 
// 2730   /* Get the CKPER clock source ------------------------------------------------*/
// 2731   pPeriphClkInit->CkperClockSelection = __HAL_RCC_GET_CLKP_SOURCE();
        LDR      R2,[R1, #+0]   
        ANDS     R2,R2,#0xC0000000
        STR      R2,[R0, #+88]  
// 2732 
// 2733 #if defined(CEC)
// 2734   /* Get the CEC clock source ------------------------------------------------*/
// 2735   pPeriphClkInit->CecClockSelection = __HAL_RCC_GET_CEC_SOURCE();
        LDR      R1,[R1, #+0]   
        ANDS     R1,R1,#0xC0    
        STR      R1,[R0, #+248] 
// 2736 #endif /* CEC */
// 2737 
// 2738   /* Get the USB clock source ------------------------------------------------*/
// 2739   pPeriphClkInit->UsbClockSelection = __HAL_RCC_GET_USB_SOURCE();
        LDR      R1,[R3, #+0]   
        ANDS     R1,R1,#0x30    
        STR      R1,[R0, #+252] 
// 2740 
// 2741   /* Get the TIM Prescaler configuration -------------------------------------*/
// 2742   if ((RCC->CFGR1 & RCC_CFGR1_TIMPRE) == 0U)
        LDR.W    R1,??DataTable4_14
        LDR      R1,[R1, #+0]   
        LSLS     R1,R1,#+16     
        BMI.N    ??HAL_RCCEx_GetPeriphCLKConfig_0
// 2743   {
// 2744     pPeriphClkInit->TimPresSelection = RCC_TIMPRES_DEACTIVATED;
        MOVS     R1,#+0         
        STR      R1,[R0, #+256] 
        B.N      ??HAL_RCCEx_GetPeriphCLKConfig_1
// 2745   }
// 2746   else
// 2747   {
// 2748     pPeriphClkInit->TimPresSelection = RCC_TIMPRES_ACTIVATED;
??HAL_RCCEx_GetPeriphCLKConfig_0:
        MOV      R1,#+32768     
        STR      R1,[R0, #+256] 
// 2749   }
// 2750 }
??HAL_RCCEx_GetPeriphCLKConfig_1:
        POP      {R4}           
          CFI R4 SameValue
          CFI CFA R13+0
        BX       LR             
          CFI EndBlock cfiBlock1

        SECTION `.text`:CODE:NOROOT(2)
        SECTION_TYPE SHT_PROGBITS, 0
        DATA
??DataTable1:
        DATA32
        DC32     0x44020c28     
// 2751 
// 2752 /**
// 2753   * @brief  Returns the PLL1 clock frequencies : PLL1_P_Frequency, PLL1_R_Frequency and PLL1_Q_Frequency
// 2754   * @note   The PLL1 clock frequencies computed by this function may not be the real
// 2755   *         frequency in the chip. It is calculated based on the predefined
// 2756   *         constant and the selected clock source:
// 2757   * @note   The function returns values based on HSE_VALUE, HSI_VALUE or CSI Value multiplied/divided by
// 2758             the PLL factors.
// 2759   * @note   This function can be used by the user application to compute the
// 2760   *         baud-rate for the communication peripherals or configure other parameters.
// 2761   *
// 2762   * @note   Each time PLL1CLK changes, this function must be called to update the
// 2763   *         right PLL1CLK value. Otherwise, any configuration based on this function will be incorrect.
// 2764   * @param  pPLL1_Clocks pointer to PLL1_ClocksTypeDef structure.
// 2765   * @retval None
// 2766   */

        SECTION `.text`:CODE:NOROOT(2)
          CFI Block cfiBlock2 Using cfiCommon0
          CFI Function HAL_RCCEx_GetPLL1ClockFreq
        THUMB
// 2767 void HAL_RCCEx_GetPLL1ClockFreq(PLL1_ClocksTypeDef *pPLL1_Clocks)
// 2768 {
HAL_RCCEx_GetPLL1ClockFreq:
        PUSH     {R4-R6,LR}     
          CFI R14 Frame(CFA, -4)
          CFI R6 Frame(CFA, -8)
          CFI R5 Frame(CFA, -12)
          CFI R4 Frame(CFA, -16)
          CFI CFA R13+16
        MOVS     R4,R0          
// 2769   GPIO_Debug(7);
        MOVS     R0,#+7         
          CFI FunCall GPIO_Debug
        BL       GPIO_Debug     
// 2770 
// 2771   uint32_t pll1source;
// 2772   uint32_t pll1m;
// 2773   uint32_t pll1n;
// 2774   uint32_t pll1fracen;
// 2775   uint32_t hsivalue;
// 2776   float_t fracn1;
// 2777   float_t pll1vco;
// 2778 
// 2779   /* PLL_VCO = (HSE_VALUE or HSI_VALUE or CSI_VALUE/ PLL1M) * PLL1N
// 2780   PLL1xCLK = PLL1_VCO / PLL1x
// 2781   */
// 2782 
// 2783   pll1n = (RCC->PLL1DIVR & RCC_PLL1DIVR_PLL1N);
        LDR.W    R2,??DataTable4_15
        LDR      R0,[R2, #+0]   
        LSLS     R0,R0,#+23     
        LSRS     R0,R0,#+23     
        VMOV     S0,R0          
// 2784   pll1source = (RCC->PLL1CFGR & RCC_PLL1CFGR_PLL1SRC);
        LDR.W    R3,??DataTable4_16
        LDR      R5,[R3, #+0]   
        ANDS     R5,R5,#0x3     
// 2785   pll1m = ((RCC->PLL1CFGR & RCC_PLL1CFGR_PLL1M) >> RCC_PLL1CFGR_PLL1M_Pos);
        LDR      R0,[R3, #+0]   
        UBFX     R0,R0,#+8,#+6  
// 2786   pll1fracen = RCC->PLL1CFGR & RCC_PLL1CFGR_PLL1FRACEN;
        LDR      R6,[R3, #+0]   
        ANDS     R6,R6,#0x10    
// 2787   fracn1 = (float_t)(uint32_t)(pll1fracen * ((RCC->PLL1FRACR & RCC_PLL1FRACR_PLL1FRACN) >> \ 
// 2788                                              RCC_PLL1FRACR_PLL1FRACN_Pos));
        LDR.W    R1,??DataTable4_17
        LDR      R1,[R1, #+0]   
        UBFX     R1,R1,#+3,#+13 
        MULS     R6,R1,R6       
        VMOV     S1,R6          
        VCVT.F32.U32 S2,S1          
// 2789 
// 2790   if (pll1m != 0U)
        CMP      R0,#+0         
        BEQ.W    ??HAL_RCCEx_GetPLL1ClockFreq_0
// 2791   {
// 2792     switch (pll1source)
        CMP      R5,#+1         
        BEQ.N    ??HAL_RCCEx_GetPLL1ClockFreq_1
        BCC.N    ??HAL_RCCEx_GetPLL1ClockFreq_2
        CMP      R5,#+3         
        BEQ.N    ??HAL_RCCEx_GetPLL1ClockFreq_3
        BCC.N    ??HAL_RCCEx_GetPLL1ClockFreq_4
        B.N      ??HAL_RCCEx_GetPLL1ClockFreq_2
// 2793     {
// 2794 
// 2795       case RCC_PLL1_SOURCE_HSI:  /* HSI used as PLL1 clock source */
// 2796         hsivalue = (HSI_VALUE >> (__HAL_RCC_GET_HSI_DIVIDER() >> RCC_CR_HSIDIV_Pos));
??HAL_RCCEx_GetPLL1ClockFreq_1:
        LDR.W    R1,??DataTable4_18
        LDR.W    R5,??DataTable4_19
        LDR      R5,[R5, #+0]   
        UBFX     R5,R5,#+3,#+2  
        LSRS     R1,R1,R5       
        VMOV     S1,R1          
// 2797         pll1vco = ((float_t)hsivalue / (float_t)pll1m) * ((float_t)(uint32_t)pll1n + (fracn1 / (float_t)0x2000) + \ 
// 2798                                                           (float_t)1);
        VCVT.F32.U32 S1,S1          
        VMOV     S3,R0          
        VCVT.F32.U32 S3,S3          
        VDIV.F32 S1,S1,S3       
        VCVT.F32.U32 S0,S0          
        VLDR.W   S3,??DataTable2_3
        VDIV.F32 S2,S2,S3       
        VADD.F32 S0,S0,S2       
        VMOV.F32 S2,#1.0        
        VADD.F32 S0,S0,S2       
        VMUL.F32 S0,S1,S0       
// 2799         break;
        B.N      ??HAL_RCCEx_GetPLL1ClockFreq_5
// 2800 
// 2801       case RCC_PLL1_SOURCE_CSI:  /* CSI used as PLL1 clock source */
// 2802         pll1vco = ((float_t)CSI_VALUE / (float_t)pll1m) * ((float_t)(uint32_t)pll1n + (fracn1 / (float_t)0x2000) + \ 
// 2803                                                            (float_t)1);
??HAL_RCCEx_GetPLL1ClockFreq_4:
        VMOV     S1,R0          
        VCVT.F32.U32 S1,S1          
        VLDR.W   S3,??DataTable2_4
        VDIV.F32 S1,S3,S1       
        VCVT.F32.U32 S0,S0          
        VLDR.W   S3,??DataTable2_3
        VDIV.F32 S2,S2,S3       
        VADD.F32 S0,S0,S2       
        VMOV.F32 S2,#1.0        
        VADD.F32 S0,S0,S2       
        VMUL.F32 S0,S1,S0       
// 2804         break;
        B.N      ??HAL_RCCEx_GetPLL1ClockFreq_5
// 2805 
// 2806       case RCC_PLL1_SOURCE_HSE:  /* HSE used as PLL1 clock source */
// 2807         pll1vco = ((float_t)HSE_VALUE / (float_t)pll1m) * ((float_t)(uint32_t)pll1n + (fracn1 / (float_t)0x2000) + \ 
// 2808                                                            (float_t)1);
??HAL_RCCEx_GetPLL1ClockFreq_3:
        VMOV     S1,R0          
        VCVT.F32.U32 S1,S1          
        VLDR.W   S3,??DataTable2_5
        VDIV.F32 S1,S3,S1       
        VCVT.F32.U32 S0,S0          
        VLDR.W   S3,??DataTable2_3
        VDIV.F32 S2,S2,S3       
        VADD.F32 S0,S0,S2       
        VMOV.F32 S2,#1.0        
        VADD.F32 S0,S0,S2       
        VMUL.F32 S0,S1,S0       
// 2809         break;
        B.N      ??HAL_RCCEx_GetPLL1ClockFreq_5
// 2810 
// 2811       default:
// 2812         hsivalue = (HSI_VALUE >> (__HAL_RCC_GET_HSI_DIVIDER() >> RCC_CR_HSIDIV_Pos));
??HAL_RCCEx_GetPLL1ClockFreq_2:
        LDR.W    R1,??DataTable4_18
        LDR.W    R5,??DataTable4_19
        LDR      R5,[R5, #+0]   
        UBFX     R5,R5,#+3,#+2  
        LSRS     R1,R1,R5       
        VMOV     S1,R1          
// 2813         pll1vco = ((float_t)hsivalue / (float_t)pll1m) * ((float_t)(uint32_t)pll1n + (fracn1 / (float_t)0x2000) + \ 
// 2814                                                           (float_t)1);
        VCVT.F32.U32 S1,S1          
        VMOV     S3,R0          
        VCVT.F32.U32 S3,S3          
        VDIV.F32 S1,S1,S3       
        VCVT.F32.U32 S0,S0          
        VLDR.W   S3,??DataTable2_3
        VDIV.F32 S2,S2,S3       
        VADD.F32 S0,S0,S2       
        VMOV.F32 S2,#1.0        
        VADD.F32 S0,S0,S2       
        VMUL.F32 S0,S1,S0       
// 2815         break;
// 2816     }
// 2817 
// 2818     if (HAL_IS_BIT_SET(RCC->CR, RCC_CR_PLL1RDY))
??HAL_RCCEx_GetPLL1ClockFreq_5:
        LDR.W    R0,??DataTable4_19
        LDR      R1,[R0, #+0]   
        LSLS     R1,R1,#+6      
        BPL.N    ??HAL_RCCEx_GetPLL1ClockFreq_6
// 2819     {
// 2820       if (__HAL_RCC_GET_PLL1_CLKOUT_CONFIG(RCC_PLL1_DIVP) != 0U)
        LDR      R1,[R3, #+0]   
        LSLS     R1,R1,#+15     
        BPL.N    ??HAL_RCCEx_GetPLL1ClockFreq_7
// 2821       {
// 2822         pPLL1_Clocks->PLL1_P_Frequency = \ 
// 2823                                          (uint32_t)(float_t)(pll1vco / \ 
// 2824                                                              ((float_t)(uint32_t)((RCC->PLL1DIVR & \ 
// 2825                                                                                    RCC_PLL1DIVR_PLL1P) >> \ 
// 2826                                                                                   RCC_PLL1DIVR_PLL1P_Pos) + \ 
// 2827                                                               (float_t)1));
        LDR      R1,[R2, #+0]   
        UBFX     R1,R1,#+9,#+7  
        VMOV     S1,R1          
        VCVT.F32.U32 S1,S1          
        VMOV.F32 S2,#1.0        
        VADD.F32 S1,S1,S2       
        VDIV.F32 S1,S0,S1       
        VCVT.U32.F32 S1,S1          
        VSTR     S1,[R4, #0]    
        B.N      ??HAL_RCCEx_GetPLL1ClockFreq_8
// 2828       }
// 2829       else
// 2830       {
// 2831         pPLL1_Clocks->PLL1_P_Frequency = 0U;
??HAL_RCCEx_GetPLL1ClockFreq_7:
        MOVS     R1,#+0         
        STR      R1,[R4, #+0]   
        B.N      ??HAL_RCCEx_GetPLL1ClockFreq_8
// 2832       }
// 2833     }
// 2834     else
// 2835     {
// 2836       pPLL1_Clocks->PLL1_P_Frequency = 0U;
??HAL_RCCEx_GetPLL1ClockFreq_6:
        MOVS     R1,#+0         
        STR      R1,[R4, #+0]   
// 2837     }
// 2838 
// 2839     if (HAL_IS_BIT_SET(RCC->CR, RCC_CR_PLL1RDY))
??HAL_RCCEx_GetPLL1ClockFreq_8:
        LDR      R1,[R0, #+0]   
        LSLS     R1,R1,#+6      
        BPL.N    ??HAL_RCCEx_GetPLL1ClockFreq_9
// 2840     {
// 2841       if (__HAL_RCC_GET_PLL1_CLKOUT_CONFIG(RCC_PLL1_DIVQ) != 0U)
        LDR      R1,[R3, #+0]   
        LSLS     R1,R1,#+14     
        BPL.N    ??HAL_RCCEx_GetPLL1ClockFreq_10
// 2842       {
// 2843         pPLL1_Clocks->PLL1_Q_Frequency = \ 
// 2844                                          (uint32_t)(float_t)(pll1vco / \ 
// 2845                                                              ((float_t)(uint32_t)((RCC->PLL1DIVR & \ 
// 2846                                                                                    RCC_PLL1DIVR_PLL1Q) >> \ 
// 2847                                                                                   RCC_PLL1DIVR_PLL1Q_Pos) + \ 
// 2848                                                               (float_t)1));
        LDR      R1,[R2, #+0]   
        UBFX     R1,R1,#+16,#+7 
        VMOV     S1,R1          
        VCVT.F32.U32 S1,S1          
        VMOV.F32 S2,#1.0        
        VADD.F32 S1,S1,S2       
        VDIV.F32 S1,S0,S1       
        VCVT.U32.F32 S1,S1          
        VSTR     S1,[R4, #+4]   
        B.N      ??HAL_RCCEx_GetPLL1ClockFreq_11
// 2849       }
// 2850       else
// 2851       {
// 2852         pPLL1_Clocks->PLL1_Q_Frequency = 0U;
??HAL_RCCEx_GetPLL1ClockFreq_10:
        MOVS     R1,#+0         
        STR      R1,[R4, #+4]   
        B.N      ??HAL_RCCEx_GetPLL1ClockFreq_11
// 2853       }
// 2854     }
// 2855     else
// 2856     {
// 2857       pPLL1_Clocks->PLL1_Q_Frequency = 0U;
??HAL_RCCEx_GetPLL1ClockFreq_9:
        MOVS     R1,#+0         
        STR      R1,[R4, #+4]   
// 2858     }
// 2859 
// 2860     if (HAL_IS_BIT_SET(RCC->CR, RCC_CR_PLL1RDY))
??HAL_RCCEx_GetPLL1ClockFreq_11:
        LDR      R0,[R0, #+0]   
        LSLS     R0,R0,#+6      
        BPL.N    ??HAL_RCCEx_GetPLL1ClockFreq_12
// 2861     {
// 2862       if (__HAL_RCC_GET_PLL1_CLKOUT_CONFIG(RCC_PLL1_DIVR) != 0U)
        LDR      R0,[R3, #+0]   
        LSLS     R0,R0,#+13     
        BPL.N    ??HAL_RCCEx_GetPLL1ClockFreq_13
// 2863       {
// 2864         pPLL1_Clocks->PLL1_R_Frequency = \ 
// 2865                                          (uint32_t)(float_t)(pll1vco / \ 
// 2866                                                              ((float_t)(uint32_t)((RCC->PLL1DIVR & \ 
// 2867                                                                                    RCC_PLL1DIVR_PLL1R) >> \ 
// 2868                                                                                   RCC_PLL1DIVR_PLL1R_Pos) + \ 
// 2869                                                               (float_t)1)) ;
        LDR      R0,[R2, #+0]   
        UBFX     R0,R0,#+24,#+7 
        VMOV     S1,R0          
        VCVT.F32.U32 S1,S1          
        VMOV.F32 S2,#1.0        
        VADD.F32 S1,S1,S2       
        VDIV.F32 S0,S0,S1       
        VCVT.U32.F32 S0,S0          
        VSTR     S0,[R4, #+8]   
        B.N      ??HAL_RCCEx_GetPLL1ClockFreq_14
// 2870       }
// 2871       else
// 2872       {
// 2873         pPLL1_Clocks->PLL1_R_Frequency = 0U;
??HAL_RCCEx_GetPLL1ClockFreq_13:
        MOVS     R0,#+0         
        STR      R0,[R4, #+8]   
        B.N      ??HAL_RCCEx_GetPLL1ClockFreq_14
// 2874       }
// 2875     }
// 2876     else
// 2877     {
// 2878       pPLL1_Clocks->PLL1_R_Frequency = 0U;
??HAL_RCCEx_GetPLL1ClockFreq_12:
        MOVS     R0,#+0         
        STR      R0,[R4, #+8]   
        B.N      ??HAL_RCCEx_GetPLL1ClockFreq_14
// 2879     }
// 2880 
// 2881   }
// 2882   else
// 2883   {
// 2884     pPLL1_Clocks->PLL1_P_Frequency = 0U;
??HAL_RCCEx_GetPLL1ClockFreq_0:
        MOVS     R0,#+0         
        STR      R0,[R4, #+0]   
// 2885     pPLL1_Clocks->PLL1_Q_Frequency = 0U;
        MOVS     R0,#+0         
        STR      R0,[R4, #+4]   
// 2886     pPLL1_Clocks->PLL1_R_Frequency = 0U;
        MOVS     R0,#+0         
        STR      R0,[R4, #+8]   
// 2887   }
// 2888 
// 2889 }
??HAL_RCCEx_GetPLL1ClockFreq_14:
        POP      {R4-R6,PC}     
          CFI EndBlock cfiBlock2

        SECTION `.text`:CODE:NOROOT(2)
        SECTION_TYPE SHT_PROGBITS, 0
        DATA
??DataTable2:
        DATA32
        DC32     0x44020ce8     

        SECTION `.text`:CODE:NOROOT(2)
        SECTION_TYPE SHT_PROGBITS, 0
        DATA
??DataTable2_1:
        DATA32
        DC32     0x44020824     

        SECTION `.text`:CODE:NOROOT(2)
        SECTION_TYPE SHT_PROGBITS, 0
        DATA
??DataTable2_2:
        DATA32
        DC32     0x44020cf0     

        SECTION `.text`:CODE:NOROOT(2)
        SECTION_TYPE SHT_PROGBITS, 0
        DATA
??DataTable2_3:
        DATA32
        DC32     0x46000000     

        SECTION `.text`:CODE:NOROOT(2)
        SECTION_TYPE SHT_PROGBITS, 0
        DATA
??DataTable2_4:
        DATA32
        DC32     0x4a742400     

        SECTION `.text`:CODE:NOROOT(2)
        SECTION_TYPE SHT_PROGBITS, 0
        DATA
??DataTable2_5:
        DATA32
        DC32     0x4bbebc20     

        SECTION `.text`:CODE:NOROOT(2)
        SECTION_TYPE SHT_PROGBITS, 0
        DATA
??DataTable2_6:
        DATA32
        DC32     0xffffcf       
// 2890 
// 2891 /**
// 2892   * @brief  Returns the PLL2 clock frequencies: PLL2_P_Frequency, PLL2_R_Frequency and PLL2_Q_Frequency
// 2893   * @note   The PLL2 clock frequencies computed by this function may not be the real
// 2894   *         frequency in the chip. It is calculated based on the predefined
// 2895   *         constant and the selected clock source:
// 2896   * @note   The function returns values based on HSE_VALUE, HSI_VALUE or CSI Value multiplied/divided by
// 2897             the PLL factors.
// 2898   * @note   This function can be used by the user application to compute the
// 2899   *         baud-rate for the communication peripherals or configure other parameters.
// 2900   *
// 2901   * @note   Each time PLL2CLK changes, this function must be called to update the
// 2902   *         right PLL2CLK value. Otherwise, any configuration based on this function will be incorrect.
// 2903   * @param  pPLL2_Clocks pointer to PLL2_ClocksTypeDef structure.
// 2904   * @retval None
// 2905   */

        SECTION `.text`:CODE:NOROOT(2)
          CFI Block cfiBlock3 Using cfiCommon0
          CFI Function HAL_RCCEx_GetPLL2ClockFreq
          CFI NoCalls
        THUMB
// 2906 void HAL_RCCEx_GetPLL2ClockFreq(PLL2_ClocksTypeDef *pPLL2_Clocks)
// 2907 {
HAL_RCCEx_GetPLL2ClockFreq:
        PUSH     {R4-R6}        
          CFI R6 Frame(CFA, -4)
          CFI R5 Frame(CFA, -8)
          CFI R4 Frame(CFA, -12)
          CFI CFA R13+12
// 2908   uint32_t  pll2source;
// 2909   uint32_t  pll2m;
// 2910   uint32_t  pll2n;
// 2911   uint32_t  pll2fracen;
// 2912   uint32_t  hsivalue;
// 2913   float_t fracn2;
// 2914   float_t pll2vco;
// 2915 
// 2916   /* PLL_VCO = (HSE_VALUE or HSI_VALUE or CSI_VALUE/ PLL2M) * PLL2N
// 2917   PLL2xCLK = PLL2_VCO / PLL2x
// 2918   */
// 2919   pll2n = (RCC->PLL2DIVR & RCC_PLL2DIVR_PLL2N);
        LDR.W    R3,??DataTable4_6
        LDR      R1,[R3, #+0]   
        LSLS     R1,R1,#+23     
        LSRS     R1,R1,#+23     
        VMOV     S0,R1          
// 2920   pll2source = (RCC->PLL2CFGR & RCC_PLL2CFGR_PLL2SRC);
        LDR.W    R4,??DataTable4_5
        LDR      R5,[R4, #+0]   
        ANDS     R5,R5,#0x3     
// 2921   pll2m = ((RCC->PLL2CFGR & RCC_PLL2CFGR_PLL2M) >> RCC_PLL2CFGR_PLL2M_Pos);
        LDR      R1,[R4, #+0]   
        UBFX     R1,R1,#+8,#+6  
// 2922   pll2fracen = RCC->PLL2CFGR & RCC_PLL2CFGR_PLL2FRACEN;
        LDR      R6,[R4, #+0]   
        ANDS     R6,R6,#0x10    
// 2923   fracn2 = (float_t)(uint32_t)(pll2fracen * ((RCC->PLL2FRACR & RCC_PLL2FRACR_PLL2FRACN) >> \ 
// 2924                                              RCC_PLL2FRACR_PLL2FRACN_Pos));
        LDR.W    R2,??DataTable4_7
        LDR      R2,[R2, #+0]   
        UBFX     R2,R2,#+3,#+13 
        MULS     R6,R2,R6       
        VMOV     S1,R6          
        VCVT.F32.U32 S2,S1          
// 2925 
// 2926   if (pll2m != 0U)
        CMP      R1,#+0         
        BEQ.W    ??HAL_RCCEx_GetPLL2ClockFreq_0
// 2927   {
// 2928     switch (pll2source)
        CMP      R5,#+1         
        BEQ.N    ??HAL_RCCEx_GetPLL2ClockFreq_1
        BCC.N    ??HAL_RCCEx_GetPLL2ClockFreq_2
        CMP      R5,#+3         
        BEQ.N    ??HAL_RCCEx_GetPLL2ClockFreq_3
        BCC.N    ??HAL_RCCEx_GetPLL2ClockFreq_4
        B.N      ??HAL_RCCEx_GetPLL2ClockFreq_2
// 2929     {
// 2930       case RCC_PLL2_SOURCE_HSI:  /* HSI used as PLL clock source */
// 2931         hsivalue = (HSI_VALUE >> (__HAL_RCC_GET_HSI_DIVIDER() >> RCC_CR_HSIDIV_Pos));
??HAL_RCCEx_GetPLL2ClockFreq_1:
        LDR.W    R2,??DataTable4_18
        LDR.W    R5,??DataTable4_19
        LDR      R5,[R5, #+0]   
        UBFX     R5,R5,#+3,#+2  
        LSRS     R2,R2,R5       
        VMOV     S1,R2          
// 2932         pll2vco = ((float_t)hsivalue / (float_t)pll2m) * ((float_t)(uint32_t)pll2n + (fracn2 / (float_t)0x2000) + \ 
// 2933                                                           (float_t)1);
        VCVT.F32.U32 S1,S1          
        VMOV     S3,R1          
        VCVT.F32.U32 S3,S3          
        VDIV.F32 S1,S1,S3       
        VCVT.F32.U32 S0,S0          
        VLDR.W   S3,??DataTable3
        VDIV.F32 S2,S2,S3       
        VADD.F32 S0,S0,S2       
        VMOV.F32 S2,#1.0        
        VADD.F32 S0,S0,S2       
        VMUL.F32 S0,S1,S0       
// 2934         break;
        B.N      ??HAL_RCCEx_GetPLL2ClockFreq_5
// 2935 
// 2936       case RCC_PLL2_SOURCE_CSI:  /* CSI used as PLL clock source */
// 2937         pll2vco = ((float_t)CSI_VALUE / (float_t)pll2m) * ((float_t)(uint32_t)pll2n + (fracn2 / (float_t)0x2000) + \ 
// 2938                                                            (float_t)1);
??HAL_RCCEx_GetPLL2ClockFreq_4:
        VMOV     S1,R1          
        VCVT.F32.U32 S1,S1          
        VLDR.W   S3,??DataTable3_1
        VDIV.F32 S1,S3,S1       
        VCVT.F32.U32 S0,S0          
        VLDR.W   S3,??DataTable3
        VDIV.F32 S2,S2,S3       
        VADD.F32 S0,S0,S2       
        VMOV.F32 S2,#1.0        
        VADD.F32 S0,S0,S2       
        VMUL.F32 S0,S1,S0       
// 2939         break;
        B.N      ??HAL_RCCEx_GetPLL2ClockFreq_5
// 2940 
// 2941       case RCC_PLL2_SOURCE_HSE:  /* HSE used as PLL clock source */
// 2942         pll2vco = ((float_t)HSE_VALUE / (float_t)pll2m) * ((float_t)(uint32_t)pll2n + (fracn2 / (float_t)0x2000) + \ 
// 2943                                                            (float_t)1);
??HAL_RCCEx_GetPLL2ClockFreq_3:
        VMOV     S1,R1          
        VCVT.F32.U32 S1,S1          
        VLDR.W   S3,??DataTable3_2
        VDIV.F32 S1,S3,S1       
        VCVT.F32.U32 S0,S0          
        VLDR.W   S3,??DataTable3
        VDIV.F32 S2,S2,S3       
        VADD.F32 S0,S0,S2       
        VMOV.F32 S2,#1.0        
        VADD.F32 S0,S0,S2       
        VMUL.F32 S0,S1,S0       
// 2944         break;
        B.N      ??HAL_RCCEx_GetPLL2ClockFreq_5
// 2945 
// 2946       default:
// 2947         hsivalue = (HSI_VALUE >> (__HAL_RCC_GET_HSI_DIVIDER() >> RCC_CR_HSIDIV_Pos));
??HAL_RCCEx_GetPLL2ClockFreq_2:
        LDR.N    R2,??DataTable4_18
        LDR.N    R5,??DataTable4_19
        LDR      R5,[R5, #+0]   
        UBFX     R5,R5,#+3,#+2  
        LSRS     R2,R2,R5       
        VMOV     S1,R2          
// 2948         pll2vco = ((float_t)hsivalue / (float_t)pll2m) * ((float_t)(uint32_t)pll2n + (fracn2 / (float_t)0x2000) + \ 
// 2949                                                           (float_t)1);
        VCVT.F32.U32 S1,S1          
        VMOV     S3,R1          
        VCVT.F32.U32 S3,S3          
        VDIV.F32 S1,S1,S3       
        VCVT.F32.U32 S0,S0          
        VLDR.W   S3,??DataTable3
        VDIV.F32 S2,S2,S3       
        VADD.F32 S0,S0,S2       
        VMOV.F32 S2,#1.0        
        VADD.F32 S0,S0,S2       
        VMUL.F32 S0,S1,S0       
// 2950         break;
// 2951     }
// 2952 
// 2953     if (HAL_IS_BIT_SET(RCC->CR, RCC_CR_PLL2RDY))
??HAL_RCCEx_GetPLL2ClockFreq_5:
        LDR.N    R1,??DataTable4_19
        LDR      R2,[R1, #+0]   
        LSLS     R2,R2,#+4      
        BPL.N    ??HAL_RCCEx_GetPLL2ClockFreq_6
// 2954     {
// 2955       if (__HAL_RCC_GET_PLL2_CLKOUT_CONFIG(RCC_PLL2_DIVP) != 0U)
        LDR      R2,[R4, #+0]   
        LSLS     R2,R2,#+15     
        BPL.N    ??HAL_RCCEx_GetPLL2ClockFreq_7
// 2956       {
// 2957         pPLL2_Clocks->PLL2_P_Frequency = \ 
// 2958                                          (uint32_t)(float_t)(pll2vco / \ 
// 2959                                                              ((float_t)(uint32_t)((RCC->PLL2DIVR & \ 
// 2960                                                                                    RCC_PLL2DIVR_PLL2P) >> \ 
// 2961                                                                                   RCC_PLL2DIVR_PLL2P_Pos) + \ 
// 2962                                                               (float_t)1));
        LDR      R2,[R3, #+0]   
        UBFX     R2,R2,#+9,#+7  
        VMOV     S1,R2          
        VCVT.F32.U32 S1,S1          
        VMOV.F32 S2,#1.0        
        VADD.F32 S1,S1,S2       
        VDIV.F32 S1,S0,S1       
        VCVT.U32.F32 S1,S1          
        VSTR     S1,[R0, #0]    
        B.N      ??HAL_RCCEx_GetPLL2ClockFreq_8
// 2963       }
// 2964       else
// 2965       {
// 2966         pPLL2_Clocks->PLL2_P_Frequency = 0U;
??HAL_RCCEx_GetPLL2ClockFreq_7:
        MOVS     R2,#+0         
        STR      R2,[R0, #+0]   
        B.N      ??HAL_RCCEx_GetPLL2ClockFreq_8
// 2967       }
// 2968     }
// 2969     else
// 2970     {
// 2971       pPLL2_Clocks->PLL2_P_Frequency = 0U;
??HAL_RCCEx_GetPLL2ClockFreq_6:
        MOVS     R2,#+0         
        STR      R2,[R0, #+0]   
// 2972     }
// 2973 
// 2974     if (HAL_IS_BIT_SET(RCC->CR, RCC_CR_PLL2RDY))
??HAL_RCCEx_GetPLL2ClockFreq_8:
        LDR      R2,[R1, #+0]   
        LSLS     R2,R2,#+4      
        BPL.N    ??HAL_RCCEx_GetPLL2ClockFreq_9
// 2975     {
// 2976       if (__HAL_RCC_GET_PLL2_CLKOUT_CONFIG(RCC_PLL2_DIVQ) != 0U)
        LDR      R2,[R4, #+0]   
        LSLS     R2,R2,#+14     
        BPL.N    ??HAL_RCCEx_GetPLL2ClockFreq_10
// 2977       {
// 2978         pPLL2_Clocks->PLL2_Q_Frequency = \ 
// 2979                                          (uint32_t)(float_t)(pll2vco / \ 
// 2980                                                              ((float_t)(uint32_t)((RCC->PLL2DIVR & \ 
// 2981                                                                                    RCC_PLL2DIVR_PLL2Q) >> \ 
// 2982                                                                                   RCC_PLL2DIVR_PLL2Q_Pos) + \ 
// 2983                                                               (float_t)1));
        LDR      R2,[R3, #+0]   
        UBFX     R2,R2,#+16,#+7 
        VMOV     S1,R2          
        VCVT.F32.U32 S1,S1          
        VMOV.F32 S2,#1.0        
        VADD.F32 S1,S1,S2       
        VDIV.F32 S1,S0,S1       
        VCVT.U32.F32 S1,S1          
        VSTR     S1,[R0, #+4]   
        B.N      ??HAL_RCCEx_GetPLL2ClockFreq_11
// 2984       }
// 2985       else
// 2986       {
// 2987         pPLL2_Clocks->PLL2_Q_Frequency = 0U;
??HAL_RCCEx_GetPLL2ClockFreq_10:
        MOVS     R2,#+0         
        STR      R2,[R0, #+4]   
        B.N      ??HAL_RCCEx_GetPLL2ClockFreq_11
// 2988       }
// 2989     }
// 2990     else
// 2991     {
// 2992       pPLL2_Clocks->PLL2_Q_Frequency = 0U;
??HAL_RCCEx_GetPLL2ClockFreq_9:
        MOVS     R2,#+0         
        STR      R2,[R0, #+4]   
// 2993     }
// 2994 
// 2995     if (HAL_IS_BIT_SET(RCC->CR, RCC_CR_PLL2RDY))
??HAL_RCCEx_GetPLL2ClockFreq_11:
        LDR      R1,[R1, #+0]   
        LSLS     R1,R1,#+4      
        BPL.N    ??HAL_RCCEx_GetPLL2ClockFreq_12
// 2996     {
// 2997       if (__HAL_RCC_GET_PLL2_CLKOUT_CONFIG(RCC_PLL2_DIVR) != 0U)
        LDR      R1,[R4, #+0]   
        LSLS     R1,R1,#+13     
        BPL.N    ??HAL_RCCEx_GetPLL2ClockFreq_13
// 2998       {
// 2999         pPLL2_Clocks->PLL2_R_Frequency = \ 
// 3000                                          (uint32_t)(float_t)(pll2vco / \ 
// 3001                                                              ((float_t)(uint32_t)((RCC->PLL2DIVR & \ 
// 3002                                                                                    RCC_PLL2DIVR_PLL2R) >> \ 
// 3003                                                                                   RCC_PLL2DIVR_PLL2R_Pos) + \ 
// 3004                                                               (float_t)1));
        LDR      R1,[R3, #+0]   
        UBFX     R1,R1,#+24,#+7 
        VMOV     S1,R1          
        VCVT.F32.U32 S1,S1          
        VMOV.F32 S2,#1.0        
